(lp1
(dp2
S'setup'
p3
(dp4
S'k'
I1
sS'dataset'
p5
S'moreno_propro'
p6
sS'selectionMethod'
p7
S'RanDeg'
p8
sS'numberOfExperiments'
p9
I20
ssS'results'
p10
(dp11
S'MAE (per experiment)'
p12
cnumpy.core.multiarray
scalar
p13
(cnumpy
dtype
p14
(S'f8'
I0
I1
tRp15
(I3
S'<'
NNNI-1
I-1
I0
tbS'B\xe8\x8d\xb3\xe9e\x06@'
tRp16
sS'MAE (for all estimates)'
p17
g13
(g15
S'\x18\x05\xbc\xa9%6\r@'
tRp18
ssS'dataset'
p19
g6
sa(dp20
g3
(dp21
S'k'
I2
sg5
g6
sg7
g8
sg9
I20
ssg10
(dp22
g12
g13
(g15
S'Tm\x1di\xa5\xc4\x06@'
tRp23
sg17
g13
(g15
S'BL^JK\xa0\t@'
tRp24
ssg19
g6
sa(dp25
g3
(dp26
S'k'
I3
sg5
g6
sg7
g8
sg9
I20
ssg10
(dp27
g12
g13
(g15
S'\xcf\xb3WXj\xa9\x06@'
tRp28
sg17
g13
(g15
S'\x0e\x96\xf7j\xfb\xc6\t@'
tRp29
ssg19
g6
sa(dp30
g3
(dp31
S'k'
I4
sg5
g6
sg7
g8
sg9
I20
ssg10
(dp32
g12
g13
(g15
S'\x9dF\xb2\xa1\x8a\xe9\x06@'
tRp33
sg17
g13
(g15
S',L(\x9a\xcc[\x08@'
tRp34
ssg19
g6
sa(dp35
g3
(dp36
S'k'
I5
sg5
g6
sg7
g8
sg9
I20
ssg10
(dp37
g12
g13
(g15
S'\x15p\xcf=\x8c\x9d\x06@'
tRp38
sg17
g13
(g15
S' pq\xbb\xb6\x96\x08@'
tRp39
ssg19
g6
sa(dp40
g3
(dp41
S'k'
I6
sg5
g6
sg7
g8
sg9
I20
ssg10
(dp42
g12
g13
(g15
S'\xb4\xeb\xfc,\xc3A\x08@'
tRp43
sg17
g13
(g15
S'j\x88\x98\xcb\x88{\t@'
tRp44
ssg19
g6
sa(dp45
g3
(dp46
S'k'
I7
sg5
g6
sg7
g8
sg9
I20
ssg10
(dp47
g12
g13
(g15
S'\x06\x96\x9c@\xc4`\x07@'
tRp48
sg17
g13
(g15
S"\xc8\x11\x94\x8a\xce'\x08@"
tRp49
ssg19
g6
sa(dp50
g3
(dp51
S'k'
I8
sg5
g6
sg7
g8
sg9
I20
ssg10
(dp52
g12
g13
(g15
S'd\xac~\xcf\xafh\x07@'
tRp53
sg17
g13
(g15
S'\xf9\x88:\x98X\xc5\x08@'
tRp54
ssg19
g6
sa(dp55
g3
(dp56
S'k'
I9
sg5
g6
sg7
g8
sg9
I20
ssg10
(dp57
g12
g13
(g15
S't(Ax{.\x07@'
tRp58
sg17
g13
(g15
S'C|\xeb\x06Y\xe7\x07@'
tRp59
ssg19
g6
sa(dp60
g3
(dp61
S'k'
I10
sg5
g6
sg7
g8
sg9
I20
ssg10
(dp62
g12
g13
(g15
S'-y`\x14-\xff\x06@'
tRp63
sg17
g13
(g15
S'\x82/\xc7"\xe7\xf1\x07@'
tRp64
ssg19
g6
sa(dp65
g3
(dp66
S'k'
I11
sg5
g6
sg7
g8
sg9
I20
ssg10
(dp67
g12
g13
(g15
S'\x9a\x8f\xf5~"#\x07@'
tRp68
sg17
g13
(g15
S'_\x7f\xbab\xd6?\x08@'
tRp69
ssg19
g6
sa(dp70
g3
(dp71
S'k'
I12
sg5
g6
sg7
g8
sg9
I20
ssg10
(dp72
g12
g13
(g15
S'95\xf6\x8c\xd6\x97\x07@'
tRp73
sg17
g13
(g15
S'\xffh\xc5g\x0bD\x08@'
tRp74
ssg19
g6
sa(dp75
g3
(dp76
S'k'
I13
sg5
g6
sg7
g8
sg9
I20
ssg10
(dp77
g12
g13
(g15
S'b\xe239\xb4\x18\x07@'
tRp78
sg17
g13
(g15
S'u\xe4\xd6\xdb\xc1\x0b\x08@'
tRp79
ssg19
g6
sa(dp80
g3
(dp81
S'k'
I14
sg5
g6
sg7
g8
sg9
I20
ssg10
(dp82
g12
g13
(g15
S'\xaa\xe4\x169\x8e6\x07@'
tRp83
sg17
g13
(g15
S'\xa2\x01\xfb0\xb2\xf6\x07@'
tRp84
ssg19
g6
sa(dp85
g3
(dp86
S'k'
I15
sg5
g6
sg7
g8
sg9
I20
ssg10
(dp87
g12
g13
(g15
S'\xb2~\x9c]\x85\x86\x07@'
tRp88
sg17
g13
(g15
S"\xd3\x1c\xa8'\xc9B\x08@"
tRp89
ssg19
g6
sa(dp90
g3
(dp91
S'k'
I16
sg5
g6
sg7
g8
sg9
I20
ssg10
(dp92
g12
g13
(g15
S'\x87\xbd\x16\x1dm.\x07@'
tRp93
sg17
g13
(g15
S"\x13\r'X\xd0\xc4\x07@"
tRp94
ssg19
g6
sa(dp95
g3
(dp96
S'k'
I17
sg5
g6
sg7
g8
sg9
I20
ssg10
(dp97
g12
g13
(g15
S'\xed\xf7\x17\xf0\x7fd\x07@'
tRp98
sg17
g13
(g15
S'\x99\x8f?\xa3\xee\xc9\x07@'
tRp99
ssg19
g6
sa(dp100
g3
(dp101
S'k'
I18
sg5
g6
sg7
g8
sg9
I20
ssg10
(dp102
g12
g13
(g15
S'\x9cM\xc3\x1c\xe6Q\x07@'
tRp103
sg17
g13
(g15
S'\xe0]\x97\x87\xae\x9c\x07@'
tRp104
ssg19
g6
sa(dp105
g3
(dp106
S'k'
I19
sg5
g6
sg7
g8
sg9
I20
ssg10
(dp107
g12
g13
(g15
S'\xf5\x9f\x87\xf78\x84\x07@'
tRp108
sg17
g13
(g15
S'\x15\x15\xff\xba1\xd0\x07@'
tRp109
ssg19
g6
sa(dp110
g3
(dp111
S'k'
I20
sg5
g6
sg7
g8
sg9
I20
ssg10
(dp112
g12
g13
(g15
S'!\xc0)\xe2\xe9D\x07@'
tRp113
sg17
g13
(g15
S'\x037l^/\x94\x07@'
tRp114
ssg19
g6
sa(dp115
g3
(dp116
S'k'
I21
sg5
g6
sg7
g8
sg9
I20
ssg10
(dp117
g12
g13
(g15
S'X4\x0e\xb6\x07\x1d\x07@'
tRp118
sg17
g13
(g15
S'mg\xd4\xac\xb6|\x07@'
tRp119
ssg19
g6
sa(dp120
g3
(dp121
S'k'
I22
sg5
g6
sg7
g8
sg9
I20
ssg10
(dp122
g12
g13
(g15
S'c\xe5\xad\x0f\xe5>\x07@'
tRp123
sg17
g13
(g15
S'\xc1P\xca\xafQ\xb4\x07@'
tRp124
ssg19
g6
sa(dp125
g3
(dp126
S'k'
I23
sg5
g6
sg7
g8
sg9
I20
ssg10
(dp127
g12
g13
(g15
S'!7w\xdb\x85\x18\x07@'
tRp128
sg17
g13
(g15
S'G\x86\xaaA\xc5l\x07@'
tRp129
ssg19
g6
sa(dp130
g3
(dp131
S'k'
I24
sg5
g6
sg7
g8
sg9
I20
ssg10
(dp132
g12
g13
(g15
S'\xees\xd7\xb1\xfc\x03\x07@'
tRp133
sg17
g13
(g15
S'\xc6\x98jd\xcai\x07@'
tRp134
ssg19
g6
sa(dp135
g3
(dp136
S'k'
I25
sg5
g6
sg7
g8
sg9
I20
ssg10
(dp137
g12
g13
(g15
S'\xf3K9O^X\x07@'
tRp138
sg17
g13
(g15
S"\x12KJ'\xd1\xbf\x07@"
tRp139
ssg19
g6
sa(dp140
g3
(dp141
S'k'
I26
sg5
g6
sg7
g8
sg9
I20
ssg10
(dp142
g12
g13
(g15
S'rP\x7f\xbf{A\x07@'
tRp143
sg17
g13
(g15
S'%\x8f\xa8\x18\xfc\x9d\x07@'
tRp144
ssg19
g6
sa(dp145
g3
(dp146
S'k'
I27
sg5
g6
sg7
g8
sg9
I20
ssg10
(dp147
g12
g13
(g15
S'{+U\x11\x1e\x84\x07@'
tRp148
sg17
g13
(g15
S'kmH\x95\xe8\xfa\x07@'
tRp149
ssg19
g6
sa(dp150
g3
(dp151
S'k'
I28
sg5
g6
sg7
g8
sg9
I20
ssg10
(dp152
g12
g13
(g15
S'~T\x18\xfdW\x1d\x07@'
tRp153
sg17
g13
(g15
S'\x8bA$\xa7\xdf{\x07@'
tRp154
ssg19
g6
sa(dp155
g3
(dp156
S'k'
I29
sg5
g6
sg7
g8
sg9
I20
ssg10
(dp157
g12
g13
(g15
S'\xa9\xf9m\xe5J\xed\x06@'
tRp158
sg17
g13
(g15
S'\xadxX\xac}:\x07@'
tRp159
ssg19
g6
sa(dp160
g3
(dp161
S'k'
I30
sg5
g6
sg7
g8
sg9
I20
ssg10
(dp162
g12
g13
(g15
S'\x02I"\xa5\xdaL\x07@'
tRp163
sg17
g13
(g15
S'\xf7xi\xd7N\x82\x07@'
tRp164
ssg19
g6
sa(dp165
g3
(dp166
S'k'
I31
sg5
g6
sg7
g8
sg9
I20
ssg10
(dp167
g12
g13
(g15
S'=\xc8\x00\xff\xf4,\x07@'
tRp168
sg17
g13
(g15
S'!f\x9c\x82Jw\x07@'
tRp169
ssg19
g6
sa(dp170
g3
(dp171
S'k'
I32
sg5
g6
sg7
g8
sg9
I20
ssg10
(dp172
g12
g13
(g15
S'O\xf0\xeco\xa1O\x07@'
tRp173
sg17
g13
(g15
S'\xe0\xab\xc2o\xa3\x84\x07@'
tRp174
ssg19
g6
sa(dp175
g3
(dp176
S'k'
I33
sg5
g6
sg7
g8
sg9
I20
ssg10
(dp177
g12
g13
(g15
S'\xa6Qm\xf5\x0b<\x07@'
tRp178
sg17
g13
(g15
S"\x07\x9d\xeb'\xe4\x8c\x07@"
tRp179
ssg19
g6
sa(dp180
g3
(dp181
S'k'
I34
sg5
g6
sg7
g8
sg9
I20
ssg10
(dp182
g12
g13
(g15
S'i\xd7\xd4z\x9a\x16\x07@'
tRp183
sg17
g13
(g15
S'\x97\xb2\x1a\nBg\x07@'
tRp184
ssg19
g6
sa(dp185
g3
(dp186
S'k'
I35
sg5
g6
sg7
g8
sg9
I20
ssg10
(dp187
g12
g13
(g15
S'm\x8eb\xfe\x7f[\x07@'
tRp188
sg17
g13
(g15
S'\x7f\xfd\x1c5\xa6\xa1\x07@'
tRp189
ssg19
g6
sa(dp190
g3
(dp191
S'k'
I36
sg5
g6
sg7
g8
sg9
I20
ssg10
(dp192
g12
g13
(g15
S'\xc4\xe0\xb1Z\xd1E\x07@'
tRp193
sg17
g13
(g15
S'\xc4\xc9\xe4\x0f\xfd\x92\x07@'
tRp194
ssg19
g6
sa(dp195
g3
(dp196
S'k'
I37
sg5
g6
sg7
g8
sg9
I20
ssg10
(dp197
g12
g13
(g15
S'\xf8O\x81q\xa6\xa9\x07@'
tRp198
sg17
g13
(g15
S'Wu&\x9eG\xdc\x07@'
tRp199
ssg19
g6
sa(dp200
g3
(dp201
S'k'
I38
sg5
g6
sg7
g8
sg9
I20
ssg10
(dp202
g12
g13
(g15
S'\xe1\x96q\xec\xca\x96\x07@'
tRp203
sg17
g13
(g15
S'zj\xf7z\xdc\xd1\x07@'
tRp204
ssg19
g6
sa(dp205
g3
(dp206
S'k'
I39
sg5
g6
sg7
g8
sg9
I20
ssg10
(dp207
g12
g13
(g15
S'\xe9#\\\xe2\xe1-\x07@'
tRp208
sg17
g13
(g15
S'\x91\x13\x91\xb6%u\x07@'
tRp209
ssg19
g6
sa(dp210
g3
(dp211
S'k'
I40
sg5
g6
sg7
g8
sg9
I20
ssg10
(dp212
g12
g13
(g15
S'\x8d\xe2\xed\x8a:4\x07@'
tRp213
sg17
g13
(g15
S'myZ+\x18j\x07@'
tRp214
ssg19
g6
sa(dp215
g3
(dp216
S'k'
I41
sg5
g6
sg7
g8
sg9
I20
ssg10
(dp217
g12
g13
(g15
S'\xf3Q\xa2\xae\xc9>\x07@'
tRp218
sg17
g13
(g15
S'\x9b\x04\xb1\x9b\x1f\x87\x07@'
tRp219
ssg19
g6
sa(dp220
g3
(dp221
S'k'
I42
sg5
g6
sg7
g8
sg9
I20
ssg10
(dp222
g12
g13
(g15
S'g\x1aw}&\x99\x07@'
tRp223
sg17
g13
(g15
S'\xb1\xef=\x8c\xb9\xda\x07@'
tRp224
ssg19
g6
sa(dp225
g3
(dp226
S'k'
I43
sg5
g6
sg7
g8
sg9
I20
ssg10
(dp227
g12
g13
(g15
S'\x9f\xb1\xfeQ\xc9,\x07@'
tRp228
sg17
g13
(g15
S'e\xfaB\x10\nQ\x07@'
tRp229
ssg19
g6
sa(dp230
g3
(dp231
S'k'
I44
sg5
g6
sg7
g8
sg9
I20
ssg10
(dp232
g12
g13
(g15
S'\xa4\\\xb0\xed\xba0\x07@'
tRp233
sg17
g13
(g15
S'\xfb\xa2S\xb3\xcfr\x07@'
tRp234
ssg19
g6
sa(dp235
g3
(dp236
S'k'
I45
sg5
g6
sg7
g8
sg9
I20
ssg10
(dp237
g12
g13
(g15
S'\x19\xa7\x17\x93fe\x07@'
tRp238
sg17
g13
(g15
S'\x0bj\xf1_\x8d\x94\x07@'
tRp239
ssg19
g6
sa(dp240
g3
(dp241
S'k'
I46
sg5
g6
sg7
g8
sg9
I20
ssg10
(dp242
g12
g13
(g15
S'\tq\xa5\x9cDb\x07@'
tRp243
sg17
g13
(g15
S'1.N^\xe4\x98\x07@'
tRp244
ssg19
g6
sa(dp245
g3
(dp246
S'k'
I47
sg5
g6
sg7
g8
sg9
I20
ssg10
(dp247
g12
g13
(g15
S'\xf2U\xf5z Q\x07@'
tRp248
sg17
g13
(g15
S'\x88n\xbe1\xe4\x83\x07@'
tRp249
ssg19
g6
sa(dp250
g3
(dp251
S'k'
I48
sg5
g6
sg7
g8
sg9
I20
ssg10
(dp252
g12
g13
(g15
S'\xc8K\xb4\xfd\xb4C\x07@'
tRp253
sg17
g13
(g15
S'\xb2\xe9\x9f\x9c\xe7s\x07@'
tRp254
ssg19
g6
sa(dp255
g3
(dp256
S'k'
I49
sg5
g6
sg7
g8
sg9
I20
ssg10
(dp257
g12
g13
(g15
S'g\xefx\x02#|\x07@'
tRp258
sg17
g13
(g15
S'(\xb5\xf5a\xa9\xab\x07@'
tRp259
ssg19
g6
sa(dp260
g3
(dp261
S'k'
I50
sg5
g6
sg7
g8
sg9
I20
ssg10
(dp262
g12
g13
(g15
S'\xe5+\xcc\x02\xc4v\x07@'
tRp263
sg17
g13
(g15
S']6\x11P(\x9a\x07@'
tRp264
ssg19
g6
sa(dp265
g3
(dp266
S'k'
I51
sg5
g6
sg7
g8
sg9
I20
ssg10
(dp267
g12
g13
(g15
S'\xac\xe2\xbb\xef\x19+\x07@'
tRp268
sg17
g13
(g15
S'\x0c\x85\x0f\x16\xaa[\x07@'
tRp269
ssg19
g6
sa(dp270
g3
(dp271
S'k'
I52
sg5
g6
sg7
g8
sg9
I20
ssg10
(dp272
g12
g13
(g15
S'\xacO\x17\xac\xf1R\x07@'
tRp273
sg17
g13
(g15
S'\xc6\xc87\xf0\xcf|\x07@'
tRp274
ssg19
g6
sa(dp275
g3
(dp276
S'k'
I53
sg5
g6
sg7
g8
sg9
I20
ssg10
(dp277
g12
g13
(g15
S'^0\xc0J\x9c\x89\x07@'
tRp278
sg17
g13
(g15
S'0R\x96e\x84\xae\x07@'
tRp279
ssg19
g6
sa(dp280
g3
(dp281
S'k'
I54
sg5
g6
sg7
g8
sg9
I20
ssg10
(dp282
g12
g13
(g15
S'\xc5\xe1~\xb6\xaa\x90\x07@'
tRp283
sg17
g13
(g15
S'\x9b\xa3+\xff\xd7\xbb\x07@'
tRp284
ssg19
g6
sa(dp285
g3
(dp286
S'k'
I55
sg5
g6
sg7
g8
sg9
I20
ssg10
(dp287
g12
g13
(g15
S'\xa1\xa0u\x94\x9a[\x07@'
tRp288
sg17
g13
(g15
S'\x9b\xda\xb0-qw\x07@'
tRp289
ssg19
g6
sa(dp290
g3
(dp291
S'k'
I56
sg5
g6
sg7
g8
sg9
I20
ssg10
(dp292
g12
g13
(g15
S'\x0f6\xc6\x10\x86V\x07@'
tRp293
sg17
g13
(g15
S'\x0b#\xbe\xb8y\x86\x07@'
tRp294
ssg19
g6
sa(dp295
g3
(dp296
S'k'
I57
sg5
g6
sg7
g8
sg9
I20
ssg10
(dp297
g12
g13
(g15
S'Pb\x10\xfa\x84S\x07@'
tRp298
sg17
g13
(g15
S'n\xf4\xd2x4y\x07@'
tRp299
ssg19
g6
sa(dp300
g3
(dp301
S'k'
I58
sg5
g6
sg7
g8
sg9
I20
ssg10
(dp302
g12
g13
(g15
S'\x0b`\x0e\x84fQ\x07@'
tRp303
sg17
g13
(g15
S'Z\xc9\xa1Z\x04|\x07@'
tRp304
ssg19
g6
sa(dp305
g3
(dp306
S'k'
I59
sg5
g6
sg7
g8
sg9
I20
ssg10
(dp307
g12
g13
(g15
S'l\xe26\x9b\xdeO\x07@'
tRp308
sg17
g13
(g15
S'\xbd\xbe1\xb2\x06f\x07@'
tRp309
ssg19
g6
sa(dp310
g3
(dp311
S'k'
I60
sg5
g6
sg7
g8
sg9
I20
ssg10
(dp312
g12
g13
(g15
S"AL\xb1'89\x07@"
tRp313
sg17
g13
(g15
S'<\x9c\r\x19Gn\x07@'
tRp314
ssg19
g6
sa(dp315
g3
(dp316
S'k'
I61
sg5
g6
sg7
g8
sg9
I20
ssg10
(dp317
g12
g13
(g15
S'\xbaZW\xf5\xe5t\x07@'
tRp318
sg17
g13
(g15
S'\xa7oJr\xcf\x87\x07@'
tRp319
ssg19
g6
sa(dp320
g3
(dp321
S'k'
I62
sg5
g6
sg7
g8
sg9
I20
ssg10
(dp322
g12
g13
(g15
S'\x8a\xb5\x1f6Px\x07@'
tRp323
sg17
g13
(g15
S'\xad\xe5\xfb\xb5\x9c\x9d\x07@'
tRp324
ssg19
g6
sa(dp325
g3
(dp326
S'k'
I63
sg5
g6
sg7
g8
sg9
I20
ssg10
(dp327
g12
g13
(g15
S'\xa4\x96\xd7\xdaS\x14\x07@'
tRp328
sg17
g13
(g15
S'\xfe\x9b\x05\xaas6\x07@'
tRp329
ssg19
g6
sa(dp330
g3
(dp331
S'k'
I64
sg5
g6
sg7
g8
sg9
I20
ssg10
(dp332
g12
g13
(g15
S'xO\x99\\E]\x07@'
tRp333
sg17
g13
(g15
S'\x06\x8e\x0cO\xeb|\x07@'
tRp334
ssg19
g6
sa(dp335
g3
(dp336
S'k'
I65
sg5
g6
sg7
g8
sg9
I20
ssg10
(dp337
g12
g13
(g15
S'\xc2\x92Rx\x1f\x0e\x07@'
tRp338
sg17
g13
(g15
S'@\x8b\x86\x8d81\x07@'
tRp339
ssg19
g6
sa(dp340
g3
(dp341
S'k'
I66
sg5
g6
sg7
g8
sg9
I20
ssg10
(dp342
g12
g13
(g15
S'g\xb5`XJD\x07@'
tRp343
sg17
g13
(g15
S'kW\xe7\x8f\xe4b\x07@'
tRp344
ssg19
g6
sa(dp345
g3
(dp346
S'k'
I67
sg5
g6
sg7
g8
sg9
I20
ssg10
(dp347
g12
g13
(g15
S'g\x8c\x84\x9aZ\x13\x07@'
tRp348
sg17
g13
(g15
S'\xdb\xde\x7f,\xda!\x07@'
tRp349
ssg19
g6
sa(dp350
g3
(dp351
S'k'
I68
sg5
g6
sg7
g8
sg9
I20
ssg10
(dp352
g12
g13
(g15
S';\xc2 \xf2\xfd9\x07@'
tRp353
sg17
g13
(g15
S'9\xc0\x10\xf5\x10[\x07@'
tRp354
ssg19
g6
sa(dp355
g3
(dp356
S'k'
I69
sg5
g6
sg7
g8
sg9
I20
ssg10
(dp357
g12
g13
(g15
S'R\xa3\xba\xd9OF\x07@'
tRp358
sg17
g13
(g15
S'\x1cn\xe5.\xa4h\x07@'
tRp359
ssg19
g6
sa(dp360
g3
(dp361
S'k'
I70
sg5
g6
sg7
g8
sg9
I20
ssg10
(dp362
g12
g13
(g15
S'\x1c\xdbx\x92)\xeb\x06@'
tRp363
sg17
g13
(g15
S'\x1c\x18\\c\x02\x1b\x07@'
tRp364
ssg19
g6
sa(dp365
g3
(dp366
S'k'
I71
sg5
g6
sg7
g8
sg9
I20
ssg10
(dp367
g12
g13
(g15
S'\xeb\xeb\x12\x92\xaa\x11\x07@'
tRp368
sg17
g13
(g15
S'\xdd\t\xe9\xcc,6\x07@'
tRp369
ssg19
g6
sa(dp370
g3
(dp371
S'k'
I72
sg5
g6
sg7
g8
sg9
I20
ssg10
(dp372
g12
g13
(g15
S'\xbf\x8c\xc4Z\xd0\x1c\x07@'
tRp373
sg17
g13
(g15
S'\x1e2\xa6\x14\xb65\x07@'
tRp374
ssg19
g6
sa(dp375
g3
(dp376
S'k'
I73
sg5
g6
sg7
g8
sg9
I20
ssg10
(dp377
g12
g13
(g15
S'?^{\xba\x1bC\x07@'
tRp378
sg17
g13
(g15
S'n\xf4/cPY\x07@'
tRp379
ssg19
g6
sa(dp380
g3
(dp381
S'k'
I74
sg5
g6
sg7
g8
sg9
I20
ssg10
(dp382
g12
g13
(g15
S'\x0fN\xcd\x1fc\x85\x07@'
tRp383
sg17
g13
(g15
S'\x82jz\xaa\xa1\xad\x07@'
tRp384
ssg19
g6
sa(dp385
g3
(dp386
S'k'
I75
sg5
g6
sg7
g8
sg9
I20
ssg10
(dp387
g12
g13
(g15
S'l\x7f O\xae\\\x07@'
tRp388
sg17
g13
(g15
S'R\xa1\xc1\xc3qv\x07@'
tRp389
ssg19
g6
sa(dp390
g3
(dp391
S'k'
I76
sg5
g6
sg7
g8
sg9
I20
ssg10
(dp392
g12
g13
(g15
S'\xd1wF0Y>\x07@'
tRp393
sg17
g13
(g15
S'\xb7\xd2\xea\xf3\x98_\x07@'
tRp394
ssg19
g6
sa(dp395
g3
(dp396
S'k'
I77
sg5
g6
sg7
g8
sg9
I20
ssg10
(dp397
g12
g13
(g15
S'\xde\x9eW\x85/$\x07@'
tRp398
sg17
g13
(g15
S'\x87\xee\x94%\xa5A\x07@'
tRp399
ssg19
g6
sa(dp400
g3
(dp401
S'k'
I78
sg5
g6
sg7
g8
sg9
I20
ssg10
(dp402
g12
g13
(g15
S'x\xfb\x9e\xaf7\xf7\x06@'
tRp403
sg17
g13
(g15
S'\x8c\xd7\xd0\x1aR\x17\x07@'
tRp404
ssg19
g6
sa(dp405
g3
(dp406
S'k'
I79
sg5
g6
sg7
g8
sg9
I20
ssg10
(dp407
g12
g13
(g15
S'\xc8P\xf6d\x1fG\x07@'
tRp408
sg17
g13
(g15
S'\xecO\xca\xa3\xede\x07@'
tRp409
ssg19
g6
sa(dp410
g3
(dp411
S'k'
I80
sg5
g6
sg7
g8
sg9
I20
ssg10
(dp412
g12
g13
(g15
S'k\x90-\x82\xf42\x07@'
tRp413
sg17
g13
(g15
S'\xc0M\xaaakU\x07@'
tRp414
ssg19
g6
sa(dp415
g3
(dp416
S'k'
I81
sg5
g6
sg7
g8
sg9
I20
ssg10
(dp417
g12
g13
(g15
S';\xc6\xbc\xeeM\x07\x07@'
tRp418
sg17
g13
(g15
S'\x80\xcf\xcf\xe4\x8b \x07@'
tRp419
ssg19
g6
sa(dp420
g3
(dp421
S'k'
I82
sg5
g6
sg7
g8
sg9
I20
ssg10
(dp422
g12
g13
(g15
S'\xbe\x8f4\x8cpB\x07@'
tRp423
sg17
g13
(g15
S'\xb8\r \x89\xd6S\x07@'
tRp424
ssg19
g6
sa(dp425
g3
(dp426
S'k'
I83
sg5
g6
sg7
g8
sg9
I20
ssg10
(dp427
g12
g13
(g15
S'\xd6\xf2\xe1|U[\x07@'
tRp428
sg17
g13
(g15
S'\x02\x96\xe6G\xbao\x07@'
tRp429
ssg19
g6
sa(dp430
g3
(dp431
S'k'
I84
sg5
g6
sg7
g8
sg9
I20
ssg10
(dp432
g12
g13
(g15
S'\x1b*\xa1F\x90:\x07@'
tRp433
sg17
g13
(g15
S'\xaa\xe7cw\xccK\x07@'
tRp434
ssg19
g6
sa(dp435
g3
(dp436
S'k'
I85
sg5
g6
sg7
g8
sg9
I20
ssg10
(dp437
g12
g13
(g15
S'\xbe;as\xf1\x04\x07@'
tRp438
sg17
g13
(g15
S'\x1e@bn\x92%\x07@'
tRp439
ssg19
g6
sa(dp440
g3
(dp441
S'k'
I86
sg5
g6
sg7
g8
sg9
I20
ssg10
(dp442
g12
g13
(g15
S'\xba\xf3\x98v\xa8a\x07@'
tRp443
sg17
g13
(g15
S'`$d\xf4G\x81\x07@'
tRp444
ssg19
g6
sa(dp445
g3
(dp446
S'k'
I87
sg5
g6
sg7
g8
sg9
I20
ssg10
(dp447
g12
g13
(g15
S'\xc7+7s3\x07\x07@'
tRp448
sg17
g13
(g15
S'\xb0C\xf2\xe6\xb1\x1d\x07@'
tRp449
ssg19
g6
sa(dp450
g3
(dp451
S'k'
I88
sg5
g6
sg7
g8
sg9
I20
ssg10
(dp452
g12
g13
(g15
S'\xe2J\xdc\x14Mh\x07@'
tRp453
sg17
g13
(g15
S'\xa1nK\xed\x82\x8a\x07@'
tRp454
ssg19
g6
sa(dp455
g3
(dp456
S'k'
I89
sg5
g6
sg7
g8
sg9
I20
ssg10
(dp457
g12
g13
(g15
S'*=Z\xa6\x80E\x07@'
tRp458
sg17
g13
(g15
S"\xfe\x92\xfb'\x9el\x07@"
tRp459
ssg19
g6
sa(dp460
g3
(dp461
S'k'
I90
sg5
g6
sg7
g8
sg9
I20
ssg10
(dp462
g12
g13
(g15
S'\xd1\xa1=\x81R<\x07@'
tRp463
sg17
g13
(g15
S"\xfa\xf9'\x7f\xc3N\x07@"
tRp464
ssg19
g6
sa(dp465
g3
(dp466
S'k'
I91
sg5
g6
sg7
g8
sg9
I20
ssg10
(dp467
g12
g13
(g15
S'\x16.\x0bx\x997\x07@'
tRp468
sg17
g13
(g15
S'\x19\x17\x82\xe2\x93T\x07@'
tRp469
ssg19
g6
sa(dp470
g3
(dp471
S'k'
I92
sg5
g6
sg7
g8
sg9
I20
ssg10
(dp472
g12
g13
(g15
S'\xe1\xe2Fu\xea\x83\x07@'
tRp473
sg17
g13
(g15
S'\xb7\xd9\xc4\xf1\x88\x91\x07@'
tRp474
ssg19
g6
sa(dp475
g3
(dp476
S'k'
I93
sg5
g6
sg7
g8
sg9
I20
ssg10
(dp477
g12
g13
(g15
S'\xf1C\xdd*\xe8K\x07@'
tRp478
sg17
g13
(g15
S'\x92\xf7\xf1Qse\x07@'
tRp479
ssg19
g6
sa(dp480
g3
(dp481
S'k'
I94
sg5
g6
sg7
g8
sg9
I20
ssg10
(dp482
g12
g13
(g15
S'\xe9\xa3\x8fJ\x8f&\x07@'
tRp483
sg17
g13
(g15
S'\xeda\xea\xcaj<\x07@'
tRp484
ssg19
g6
sa(dp485
g3
(dp486
S'k'
I95
sg5
g6
sg7
g8
sg9
I20
ssg10
(dp487
g12
g13
(g15
S'b\xefh\xbf\x07@\x07@'
tRp488
sg17
g13
(g15
S'\xa1\xcb\x0c\xd8\xacm\x07@'
tRp489
ssg19
g6
sa(dp490
g3
(dp491
S'k'
I96
sg5
g6
sg7
g8
sg9
I20
ssg10
(dp492
g12
g13
(g15
S'*\xa4\xe4\xb5\t]\x07@'
tRp493
sg17
g13
(g15
S'\x80\xc8\xb1\xc98|\x07@'
tRp494
ssg19
g6
sa(dp495
g3
(dp496
S'k'
I97
sg5
g6
sg7
g8
sg9
I20
ssg10
(dp497
g12
g13
(g15
S'],\x97p\x137\x07@'
tRp498
sg17
g13
(g15
S'\xb3i7r\xbaR\x07@'
tRp499
ssg19
g6
sa(dp500
g3
(dp501
S'k'
I98
sg5
g6
sg7
g8
sg9
I20
ssg10
(dp502
g12
g13
(g15
S'U\x9f\xdfU{V\x07@'
tRp503
sg17
g13
(g15
S'\xd0\xcb\xaf\x16\x08h\x07@'
tRp504
ssg19
g6
sa(dp505
g3
(dp506
S'k'
I99
sg5
g6
sg7
g8
sg9
I20
ssg10
(dp507
g12
g13
(g15
S'R\xc0\x19\xfe`=\x07@'
tRp508
sg17
g13
(g15
S'];R9\xf2P\x07@'
tRp509
ssg19
g6
sa(dp510
g3
(dp511
S'k'
I100
sg5
g6
sg7
g8
sg9
I20
ssg10
(dp512
g12
g13
(g15
S'\x13\x8dF\x10\xe9F\x07@'
tRp513
sg17
g13
(g15
S'\xd4\xad\x9f\x7f\xa6S\x07@'
tRp514
ssg19
g6
sa(dp515
g3
(dp516
S'k'
I100
sg5
g6
sg7
g8
sg9
I20
ssg10
(dp517
g12
g13
(g15
S'\rd\x909\xfbE\x07@'
tRp518
sg17
g13
(g15
S'@\x12N8\xf6]\x07@'
tRp519
ssg19
g6
sa(dp520
g3
(dp521
S'k'
I200
sg5
g6
sg7
g8
sg9
I20
ssg10
(dp522
g12
g13
(g15
S'\x8e\x81e\x11Q"\x07@'
tRp523
sg17
g13
(g15
S'[\xb8\x8d\x89\xc0(\x07@'
tRp524
ssg19
g6
sa(dp525
g3
(dp526
S'k'
I300
sg5
g6
sg7
g8
sg9
I20
ssg10
(dp527
g12
g13
(g15
S'/jj\\}1\x07@'
tRp528
sg17
g13
(g15
S'\xe4\xac\xb3T\x19:\x07@'
tRp529
ssg19
g6
sa(dp530
g3
(dp531
S'k'
I400
sg5
g6
sg7
g8
sg9
I20
ssg10
(dp532
g12
g13
(g15
S'+\xa2\x8b\x89\xc8\\\x07@'
tRp533
sg17
g13
(g15
S'\xc2\xe1\x0c\x8cpd\x07@'
tRp534
ssg19
g6
sa(dp535
g3
(dp536
S'k'
I500
sg5
g6
sg7
g8
sg9
I20
ssg10
(dp537
g12
g13
(g15
S'\xa9\xe5\xb7/"?\x07@'
tRp538
sg17
g13
(g15
S'\x80"\xa3.\xc4E\x07@'
tRp539
ssg19
g6
sa(dp540
g3
(dp541
S'k'
I600
sg5
g6
sg7
g8
sg9
I20
ssg10
(dp542
g12
g13
(g15
S'\xcb7v\x0c\x982\x07@'
tRp543
sg17
g13
(g15
S'\xad7!\xa1\xae6\x07@'
tRp544
ssg19
g6
sa(dp545
g3
(dp546
S'k'
I700
sg5
g6
sg7
g8
sg9
I20
ssg10
(dp547
g12
g13
(g15
S'\x9c\xaa\x83}:;\x07@'
tRp548
sg17
g13
(g15
S'\x0e\x16B\x8f\xd8?\x07@'
tRp549
ssg19
g6
sa(dp550
g3
(dp551
S'k'
I800
sg5
g6
sg7
g8
sg9
I20
ssg10
(dp552
g12
g13
(g15
S'\xce\xbd@\xe6\xde3\x07@'
tRp553
sg17
g13
(g15
S'\xc5s\xbb"\x837\x07@'
tRp554
ssg19
g6
sa(dp555
g3
(dp556
S'k'
I900
sg5
g6
sg7
g8
sg9
I20
ssg10
(dp557
g12
g13
(g15
S')\xab\xb9)\xca>\x07@'
tRp558
sg17
g13
(g15
S'\xacj\xe6\xa03A\x07@'
tRp559
ssg19
g6
sa(dp560
g3
(dp561
S'k'
I1000
sg5
g6
sg7
g8
sg9
I20
ssg10
(dp562
g12
g13
(g15
S'\x0e<TttK\x07@'
tRp563
sg17
g13
(g15
S"\x92'.m\x06N\x07@"
tRp564
ssg19
g6
sa(dp565
g3
(dp566
S'k'
I1100
sg5
g6
sg7
g8
sg9
I20
ssg10
(dp567
g12
g13
(g15
S'GW\x13!\xed@\x07@'
tRp568
sg17
g13
(g15
S'\xe0*<q;C\x07@'
tRp569
ssg19
g6
sa(dp570
g3
(dp571
S'k'
I1200
sg5
g6
sg7
g8
sg9
I20
ssg10
(dp572
g12
g13
(g15
S'\xa1\xc1\xef\xb9\x13H\x07@'
tRp573
sg17
g13
(g15
S'\xe1>\x06\xb0\x9eI\x07@'
tRp574
ssg19
g6
sa(dp575
g3
(dp576
S'k'
I1300
sg5
g6
sg7
g8
sg9
I20
ssg10
(dp577
g12
g13
(g15
S'C\xb8?\x85q7\x07@'
tRp578
sg17
g13
(g15
S'\xbcsRM\xc38\x07@'
tRp579
ssg19
g6
sa(dp580
g3
(dp581
S'k'
I1400
sg5
g6
sg7
g8
sg9
I20
ssg10
(dp582
g12
g13
(g15
S'\xdb\xad,\xc7\xd1-\x07@'
tRp583
sg17
g13
(g15
S'!a\x06\xf0\x9c/\x07@'
tRp584
ssg19
g6
sa(dp585
g3
(dp586
S'k'
I1500
sg5
g6
sg7
g8
sg9
I20
ssg10
(dp587
g12
g13
(g15
S'k\x13\x05\x96{<\x07@'
tRp588
sg17
g13
(g15
S'"\xbe9\xc8#>\x07@'
tRp589
ssg19
g6
sa(dp590
g3
(dp591
S'k'
I1600
sg5
g6
sg7
g8
sg9
I20
ssg10
(dp592
g12
g13
(g15
S'\x92G\x99\xc2\xbbD\x07@'
tRp593
sg17
g13
(g15
S'\xf8vfS\x18F\x07@'
tRp594
ssg19
g6
sa(dp595
g3
(dp596
S'k'
I1700
sg5
g6
sg7
g8
sg9
I20
ssg10
(dp597
g12
g13
(g15
S'\x05\x03\x1b\xdd\xed9\x07@'
tRp598
sg17
g13
(g15
S'\x19B\xaf \xf8:\x07@'
tRp599
ssg19
g6
sa(dp600
g3
(dp601
S'k'
I1800
sg5
g6
sg7
g8
sg9
I20
ssg10
(dp602
g12
g13
(g15
S'&\xe5\x03\xc1\xc8K\x07@'
tRp603
sg17
g13
(g15
S'Gya\xd4\x82L\x07@'
tRp604
ssg19
g6
sa(dp605
g3
(dp606
S'k'
I1870
sg5
g6
sg7
g8
sg9
I20
ssg10
(dp607
g12
g13
(g15
S'B\xad\xae\xae\x9fA\x07@'
tRp608
sg17
g13
(g15
S'\x1f\x155Q\xc0B\x07@'
tRp609
ssg19
g6
sa.