(lp1
(dp2
S'setup'
p3
(dp4
S'k'
I1
sS'dataset'
p5
S'ego_facebook'
p6
sS'numberOfExperiments'
p7
I20
ssS'results'
p8
(dp9
S'MAE (per experiment)'
p10
cnumpy.core.multiarray
scalar
p11
(cnumpy
dtype
p12
(S'f8'
I0
I1
tRp13
(I3
S'<'
NNNI-1
I-1
I0
tbS'\x8c2\xc3X\x9e/\xe4?'
tRp14
sS'MAE (for all estimates)'
p15
g11
(g13
S'\xeb\x94U\xc1\xcc\xd6\xf1?'
tRp16
ssS'dataset'
p17
g6
sa(dp18
g3
(dp19
S'k'
I2
sg5
g6
sg7
I20
ssg8
(dp20
g10
g11
(g13
S'\x19\xfa?K\x90\x04\xe2?'
tRp21
sg15
g11
(g13
S'\x15*?\x96\x94Q\xed?'
tRp22
ssg17
g6
sa(dp23
g3
(dp24
S'k'
I3
sg5
g6
sg7
I20
ssg8
(dp25
g10
g11
(g13
S'\xba&\x9d\x88\xef\xd6\xe1?'
tRp26
sg15
g11
(g13
S'Q\x93\xba0}\xb1\xeb?'
tRp27
ssg17
g6
sa(dp28
g3
(dp29
S'k'
I4
sg5
g6
sg7
I20
ssg8
(dp30
g10
g11
(g13
S'#\xd0\xa7\x89\x01\x1e\xe2?'
tRp31
sg15
g11
(g13
S'\xed\x85\xe7\x81\xce\xba\xe8?'
tRp32
ssg17
g6
sa(dp33
g3
(dp34
S'k'
I5
sg5
g6
sg7
I20
ssg8
(dp35
g10
g11
(g13
S'_\xcd^\xc8\xab\xf4\xe1?'
tRp36
sg15
g11
(g13
S'wcO\xd8\x1f\xe0\xe6?'
tRp37
ssg17
g6
sa(dp38
g3
(dp39
S'k'
I6
sg5
g6
sg7
I20
ssg8
(dp40
g10
g11
(g13
S'\xed\x04\xdf4\x0c\x99\xe1?'
tRp41
sg15
g11
(g13
S'\xe6\xc7\xf8\xed@\xba\xe7?'
tRp42
ssg17
g6
sa(dp43
g3
(dp44
S'k'
I7
sg5
g6
sg7
I20
ssg8
(dp45
g10
g11
(g13
S'\x9f\x00\x92\xae\x88\xd2\xe2?'
tRp46
sg15
g11
(g13
S'\xe4\xedC\xec5\xe2\xe6?'
tRp47
ssg17
g6
sa(dp48
g3
(dp49
S'k'
I8
sg5
g6
sg7
I20
ssg8
(dp50
g10
g11
(g13
S'\xf3\x8d\xb7\x1b\xbf\xc6\xe1?'
tRp51
sg15
g11
(g13
S'\x98\xbb\xcf}\xb8h\xe6?'
tRp52
ssg17
g6
sa(dp53
g3
(dp54
S'k'
I9
sg5
g6
sg7
I20
ssg8
(dp55
g10
g11
(g13
S'\x94YH\xc4h\xa9\xe1?'
tRp56
sg15
g11
(g13
S'\x07;o\xae\r\xd7\xe5?'
tRp57
ssg17
g6
sa(dp58
g3
(dp59
S'k'
I10
sg5
g6
sg7
I20
ssg8
(dp60
g10
g11
(g13
S'\x95i\x0b\xa3\x83\xae\xe1?'
tRp61
sg15
g11
(g13
S'\xaa\x8fm\xa8J\xce\xe5?'
tRp62
ssg17
g6
sa(dp63
g3
(dp64
S'k'
I11
sg5
g6
sg7
I20
ssg8
(dp65
g10
g11
(g13
S'\xc9ut\xc7]A\xe1?'
tRp66
sg15
g11
(g13
S'\x93r\xc8\x1eJ\xfb\xe4?'
tRp67
ssg17
g6
sa(dp68
g3
(dp69
S'k'
I12
sg5
g6
sg7
I20
ssg8
(dp70
g10
g11
(g13
S'jY\x1eB1H\xe1?'
tRp71
sg15
g11
(g13
S'Eg%\xbf\x87\xd1\xe4?'
tRp72
ssg17
g6
sa(dp73
g3
(dp74
S'k'
I13
sg5
g6
sg7
I20
ssg8
(dp75
g10
g11
(g13
S'1\xba\xc0<\xc2\x94\xe1?'
tRp76
sg15
g11
(g13
S'\x18\xc2EfqH\xe5?'
tRp77
ssg17
g6
sa(dp78
g3
(dp79
S'k'
I14
sg5
g6
sg7
I20
ssg8
(dp80
g10
g11
(g13
S'\xe4v\xe8\xf9I\x92\xe1?'
tRp81
sg15
g11
(g13
S'\xe3j\x98\x01r\x8e\xe4?'
tRp82
ssg17
g6
sa(dp83
g3
(dp84
S'k'
I15
sg5
g6
sg7
I20
ssg8
(dp85
g10
g11
(g13
S'\xf5\xe9\x12^?U\xe1?'
tRp86
sg15
g11
(g13
S'\x90\r\xb3\xaaq\xc4\xe3?'
tRp87
ssg17
g6
sa(dp88
g3
(dp89
S'k'
I16
sg5
g6
sg7
I20
ssg8
(dp90
g10
g11
(g13
S'\xf8{f\xeb\x8cm\xe1?'
tRp91
sg15
g11
(g13
S'4\x8e\xa5Kf8\xe4?'
tRp92
ssg17
g6
sa(dp93
g3
(dp94
S'k'
I17
sg5
g6
sg7
I20
ssg8
(dp95
g10
g11
(g13
S'{\x192%>q\xe1?'
tRp96
sg15
g11
(g13
S'\x9b.\xafW\x84\xd6\xe3?'
tRp97
ssg17
g6
sa(dp98
g3
(dp99
S'k'
I18
sg5
g6
sg7
I20
ssg8
(dp100
g10
g11
(g13
S'\xd1{\x0b\x87"d\xe1?'
tRp101
sg15
g11
(g13
S'\xc4z\x02t\xaf\xc5\xe3?'
tRp102
ssg17
g6
sa(dp103
g3
(dp104
S'k'
I19
sg5
g6
sg7
I20
ssg8
(dp105
g10
g11
(g13
S'y\x13yv\xd3\x89\xe1?'
tRp106
sg15
g11
(g13
S'vm\xdf\x8c\xf8\xc9\xe3?'
tRp107
ssg17
g6
sa(dp108
g3
(dp109
S'k'
I20
sg5
g6
sg7
I20
ssg8
(dp110
g10
g11
(g13
S'\xc9\xa67\x8f\x81\x9d\xe1?'
tRp111
sg15
g11
(g13
S'\x9a\xcb\xd7\xd70&\xe4?'
tRp112
ssg17
g6
sa(dp113
g3
(dp114
S'k'
I21
sg5
g6
sg7
I20
ssg8
(dp115
g10
g11
(g13
S'\x01_\xf0\xd2\xe9\x87\xe1?'
tRp116
sg15
g11
(g13
S'Mb\r\xa0X\xd8\xe3?'
tRp117
ssg17
g6
sa(dp118
g3
(dp119
S'k'
I22
sg5
g6
sg7
I20
ssg8
(dp120
g10
g11
(g13
S'\xc1\xca\xa7\x8e\xb0\x8d\xe1?'
tRp121
sg15
g11
(g13
S'\xaf\xf0\xa7\xbb\x84\xca\xe3?'
tRp122
ssg17
g6
sa(dp123
g3
(dp124
S'k'
I23
sg5
g6
sg7
I20
ssg8
(dp125
g10
g11
(g13
S'\x84j\xde\xe9\x15a\xe1?'
tRp126
sg15
g11
(g13
S'\xc4\x0c\x9d%(\x7f\xe3?'
tRp127
ssg17
g6
sa(dp128
g3
(dp129
S'k'
I24
sg5
g6
sg7
I20
ssg8
(dp130
g10
g11
(g13
S'\xb6\x88\xc5\x16<\x97\xe1?'
tRp131
sg15
g11
(g13
S')`\xd6Y\xaeO\xe3?'
tRp132
ssg17
g6
sa(dp133
g3
(dp134
S'k'
I25
sg5
g6
sg7
I20
ssg8
(dp135
g10
g11
(g13
S'\x1cB9\xfb5q\xe1?'
tRp136
sg15
g11
(g13
S'%r\xcbw\x17\xa5\xe3?'
tRp137
ssg17
g6
sa(dp138
g3
(dp139
S'k'
I26
sg5
g6
sg7
I20
ssg8
(dp140
g10
g11
(g13
S'L\x11\xef\xc5\x88M\xe1?'
tRp141
sg15
g11
(g13
S'PR\xd6\xe1\x11s\xe3?'
tRp142
ssg17
g6
sa(dp143
g3
(dp144
S'k'
I27
sg5
g6
sg7
I20
ssg8
(dp145
g10
g11
(g13
S'\x9b!h\x0b>\xac\xe1?'
tRp146
sg15
g11
(g13
S'.B\x15\x85,\xd5\xe3?'
tRp147
ssg17
g6
sa(dp148
g3
(dp149
S'k'
I28
sg5
g6
sg7
I20
ssg8
(dp150
g10
g11
(g13
S'd\xeb\xa7P\xf5\x92\xe1?'
tRp151
sg15
g11
(g13
S'1X\x05\xbc\xe1`\xe3?'
tRp152
ssg17
g6
sa(dp153
g3
(dp154
S'k'
I29
sg5
g6
sg7
I20
ssg8
(dp155
g10
g11
(g13
S'~\xdf\xe7\xdaq\xb4\xe1?'
tRp156
sg15
g11
(g13
S'\xb6\xdfE\xccc,\xe3?'
tRp157
ssg17
g6
sa(dp158
g3
(dp159
S'k'
I30
sg5
g6
sg7
I20
ssg8
(dp160
g10
g11
(g13
S'Z\x9c\xbf\xfdpj\xe1?'
tRp161
sg15
g11
(g13
S'+\x84\xdb&?\xe6\xe2?'
tRp162
ssg17
g6
sa(dp163
g3
(dp164
S'k'
I31
sg5
g6
sg7
I20
ssg8
(dp165
g10
g11
(g13
S'H\xf4-\xe4\xcf\x96\xe1?'
tRp166
sg15
g11
(g13
S']1p50!\xe3?'
tRp167
ssg17
g6
sa(dp168
g3
(dp169
S'k'
I32
sg5
g6
sg7
I20
ssg8
(dp170
g10
g11
(g13
S'`C=c\x1f\xc4\xe1?'
tRp171
sg15
g11
(g13
S'\xc0\x846\x1b\xb6[\xe3?'
tRp172
ssg17
g6
sa(dp173
g3
(dp174
S'k'
I33
sg5
g6
sg7
I20
ssg8
(dp175
g10
g11
(g13
S'\x07p\x14\xb0~P\xe1?'
tRp176
sg15
g11
(g13
S'\xca\xd2[\xb34\xcd\xe2?'
tRp177
ssg17
g6
sa(dp178
g3
(dp179
S'k'
I34
sg5
g6
sg7
I20
ssg8
(dp180
g10
g11
(g13
S'\x96\x9c\xdc\xc52P\xe1?'
tRp181
sg15
g11
(g13
S'\x1d\xef\xb8\xfd\xc4T\xe3?'
tRp182
ssg17
g6
sa(dp183
g3
(dp184
S'k'
I35
sg5
g6
sg7
I20
ssg8
(dp185
g10
g11
(g13
S'\x18\xec\x06\\*?\xe2?'
tRp186
sg15
g11
(g13
S'n\xdf\xd8\xf4\x80E\xe3?'
tRp187
ssg17
g6
sa(dp188
g3
(dp189
S'k'
I36
sg5
g6
sg7
I20
ssg8
(dp190
g10
g11
(g13
S'\xbda\t.\x85\xd6\xe1?'
tRp191
sg15
g11
(g13
S'\xc1\xbbbv\x8e8\xe3?'
tRp192
ssg17
g6
sa(dp193
g3
(dp194
S'k'
I37
sg5
g6
sg7
I20
ssg8
(dp195
g10
g11
(g13
S'O*\xc4>3\x8c\xe1?'
tRp196
sg15
g11
(g13
S'\xad\x16E\xe8A\x1d\xe3?'
tRp197
ssg17
g6
sa(dp198
g3
(dp199
S'k'
I38
sg5
g6
sg7
I20
ssg8
(dp200
g10
g11
(g13
S't\xe47+\x1f\xb5\xe1?'
tRp201
sg15
g11
(g13
S"'\t\x9f\xe4Wo\xe3?"
tRp202
ssg17
g6
sa(dp203
g3
(dp204
S'k'
I39
sg5
g6
sg7
I20
ssg8
(dp205
g10
g11
(g13
S'\x08h&\xaf\xa0\x99\xe1?'
tRp206
sg15
g11
(g13
S'M\n\xe1\xb0\xf8{\xe2?'
tRp207
ssg17
g6
sa(dp208
g3
(dp209
S'k'
I40
sg5
g6
sg7
I20
ssg8
(dp210
g10
g11
(g13
S'\x12\xe0P\xf3A\xa7\xe1?'
tRp211
sg15
g11
(g13
S'\xb0*\x00M/\xeb\xe2?'
tRp212
ssg17
g6
sa(dp213
g3
(dp214
S'k'
I41
sg5
g6
sg7
I20
ssg8
(dp215
g10
g11
(g13
S'\x9fz\xd00hY\xe1?'
tRp216
sg15
g11
(g13
S'M\x0c:G\x0c\t\xe3?'
tRp217
ssg17
g6
sa(dp218
g3
(dp219
S'k'
I42
sg5
g6
sg7
I20
ssg8
(dp220
g10
g11
(g13
S'_\xb3\n\xe5PK\xe1?'
tRp221
sg15
g11
(g13
S'\x16\x86\x94\xbe\x81\xbf\xe2?'
tRp222
ssg17
g6
sa(dp223
g3
(dp224
S'k'
I43
sg5
g6
sg7
I20
ssg8
(dp225
g10
g11
(g13
S'\xccQ\xec\xf7\x97\xad\xe1?'
tRp226
sg15
g11
(g13
S']\x83\x14\x15\xa4V\xe3?'
tRp227
ssg17
g6
sa(dp228
g3
(dp229
S'k'
I44
sg5
g6
sg7
I20
ssg8
(dp230
g10
g11
(g13
S'A\x00\x97\xe3\xd9O\xe1?'
tRp231
sg15
g11
(g13
S'\xab\xc2\n\xdb\xe2\xc4\xe2?'
tRp232
ssg17
g6
sa(dp233
g3
(dp234
S'k'
I45
sg5
g6
sg7
I20
ssg8
(dp235
g10
g11
(g13
S':8\xab\xa2\x92S\xe1?'
tRp236
sg15
g11
(g13
S'\x16\x0b \xb7\x03\x8e\xe2?'
tRp237
ssg17
g6
sa(dp238
g3
(dp239
S'k'
I46
sg5
g6
sg7
I20
ssg8
(dp240
g10
g11
(g13
S'\x1c\xd5P\x81\xb9\x98\xe1?'
tRp241
sg15
g11
(g13
S'L&P\xb18\xb8\xe2?'
tRp242
ssg17
g6
sa(dp243
g3
(dp244
S'k'
I47
sg5
g6
sg7
I20
ssg8
(dp245
g10
g11
(g13
S'r\xb2\xa3+!o\xe1?'
tRp246
sg15
g11
(g13
S'\xad^\x1e\xe9\xb9\xb8\xe2?'
tRp247
ssg17
g6
sa(dp248
g3
(dp249
S'k'
I48
sg5
g6
sg7
I20
ssg8
(dp250
g10
g11
(g13
S'"]\x14g\xab\xae\xe1?'
tRp251
sg15
g11
(g13
S'\xaf\xde\xd4\x82u\xd2\xe2?'
tRp252
ssg17
g6
sa(dp253
g3
(dp254
S'k'
I49
sg5
g6
sg7
I20
ssg8
(dp255
g10
g11
(g13
S'\x11%\xef\xe5\x90\x97\xe1?'
tRp256
sg15
g11
(g13
S'\xffu5b\xa1\xb9\xe2?'
tRp257
ssg17
g6
sa(dp258
g3
(dp259
S'k'
I50
sg5
g6
sg7
I20
ssg8
(dp260
g10
g11
(g13
S'X\x17zP<\x86\xe1?'
tRp261
sg15
g11
(g13
S'\x84\xc3\xd5\x96\x86\xb1\xe2?'
tRp262
ssg17
g6
sa(dp263
g3
(dp264
S'k'
I51
sg5
g6
sg7
I20
ssg8
(dp265
g10
g11
(g13
S'\xa9lo\xbe\x80]\xe1?'
tRp266
sg15
g11
(g13
S'KM\x1fp)\xc8\xe2?'
tRp267
ssg17
g6
sa(dp268
g3
(dp269
S'k'
I52
sg5
g6
sg7
I20
ssg8
(dp270
g10
g11
(g13
S'`\xb17yb[\xe1?'
tRp271
sg15
g11
(g13
S'\x19\x18C\xbf$\xcf\xe2?'
tRp272
ssg17
g6
sa(dp273
g3
(dp274
S'k'
I53
sg5
g6
sg7
I20
ssg8
(dp275
g10
g11
(g13
S"'\x04\x17\xdc\xd4n\xe1?"
tRp276
sg15
g11
(g13
S'\xd7\x0bG\x8b\x89\x86\xe2?'
tRp277
ssg17
g6
sa(dp278
g3
(dp279
S'k'
I54
sg5
g6
sg7
I20
ssg8
(dp280
g10
g11
(g13
S'R\x99MJ\xfdV\xe1?'
tRp281
sg15
g11
(g13
S'\xb4\xbd\xa7Z\x85\x90\xe2?'
tRp282
ssg17
g6
sa(dp283
g3
(dp284
S'k'
I55
sg5
g6
sg7
I20
ssg8
(dp285
g10
g11
(g13
S'7H\xac\xa9\xc5J\xe1?'
tRp286
sg15
g11
(g13
S'\xbe\xc9y\x81\xb5\xb0\xe2?'
tRp287
ssg17
g6
sa(dp288
g3
(dp289
S'k'
I56
sg5
g6
sg7
I20
ssg8
(dp290
g10
g11
(g13
S'\xa1\x1d\x05\x9a \x92\xe1?'
tRp291
sg15
g11
(g13
S'\xb9\xe7T\xd6eO\xe2?'
tRp292
ssg17
g6
sa(dp293
g3
(dp294
S'k'
I57
sg5
g6
sg7
I20
ssg8
(dp295
g10
g11
(g13
S'\xcf:\x8c\xc4\xa6^\xe1?'
tRp296
sg15
g11
(g13
S'\xf1d\x1a\x92\xfba\xe2?'
tRp297
ssg17
g6
sa(dp298
g3
(dp299
S'k'
I58
sg5
g6
sg7
I20
ssg8
(dp300
g10
g11
(g13
S'\xb6S\x9bcmM\xe1?'
tRp301
sg15
g11
(g13
S's\xdcH\xb1\xca\x97\xe2?'
tRp302
ssg17
g6
sa(dp303
g3
(dp304
S'k'
I59
sg5
g6
sg7
I20
ssg8
(dp305
g10
g11
(g13
S'\x8cj\x9e\xad\xfeb\xe1?'
tRp306
sg15
g11
(g13
S'\xb7\xa6\xb7I\xb7z\xe2?'
tRp307
ssg17
g6
sa(dp308
g3
(dp309
S'k'
I60
sg5
g6
sg7
I20
ssg8
(dp310
g10
g11
(g13
S'\xa5\xd3\xddu\x89<\xe1?'
tRp311
sg15
g11
(g13
S'\x89\xd58p\x92n\xe2?'
tRp312
ssg17
g6
sa(dp313
g3
(dp314
S'k'
I61
sg5
g6
sg7
I20
ssg8
(dp315
g10
g11
(g13
S'\x8cP\xd6\xaffj\xe1?'
tRp316
sg15
g11
(g13
S'\xe8\x1eI\xe7$\x9f\xe2?'
tRp317
ssg17
g6
sa(dp318
g3
(dp319
S'k'
I62
sg5
g6
sg7
I20
ssg8
(dp320
g10
g11
(g13
S'=\xd2\xa6\xf4^U\xe1?'
tRp321
sg15
g11
(g13
S'\xb4\xac|*\x1d1\xe2?'
tRp322
ssg17
g6
sa(dp323
g3
(dp324
S'k'
I63
sg5
g6
sg7
I20
ssg8
(dp325
g10
g11
(g13
S'\x1e#*\x14\x85@\xe1?'
tRp326
sg15
g11
(g13
S'0\\M "S\xe2?'
tRp327
ssg17
g6
sa(dp328
g3
(dp329
S'k'
I64
sg5
g6
sg7
I20
ssg8
(dp330
g10
g11
(g13
S'*\xa0Az\xadf\xe1?'
tRp331
sg15
g11
(g13
S'?\x02\x19\xfb\xc5\x81\xe2?'
tRp332
ssg17
g6
sa(dp333
g3
(dp334
S'k'
I65
sg5
g6
sg7
I20
ssg8
(dp335
g10
g11
(g13
S'\xce\xba#{\x97\x80\xe1?'
tRp336
sg15
g11
(g13
S'\x80\xcbO\x0bt\x9e\xe2?'
tRp337
ssg17
g6
sa(dp338
g3
(dp339
S'k'
I66
sg5
g6
sg7
I20
ssg8
(dp340
g10
g11
(g13
S'9M\xa0\x83)J\xe1?'
tRp341
sg15
g11
(g13
S':\xbd\xd6\xd0\x16S\xe2?'
tRp342
ssg17
g6
sa(dp343
g3
(dp344
S'k'
I67
sg5
g6
sg7
I20
ssg8
(dp345
g10
g11
(g13
S'4R~\xf2sK\xe1?'
tRp346
sg15
g11
(g13
S'\xc0T\xe4\xfb\x1ai\xe2?'
tRp347
ssg17
g6
sa(dp348
g3
(dp349
S'k'
I68
sg5
g6
sg7
I20
ssg8
(dp350
g10
g11
(g13
S'\xa3%\x8alL\x99\xe1?'
tRp351
sg15
g11
(g13
S'Y\xee\x08 N\x97\xe2?'
tRp352
ssg17
g6
sa(dp353
g3
(dp354
S'k'
I69
sg5
g6
sg7
I20
ssg8
(dp355
g10
g11
(g13
S'"Sf7\xd1P\xe1?'
tRp356
sg15
g11
(g13
S'\xe6\xebF\xb9\xd0\x1e\xe2?'
tRp357
ssg17
g6
sa(dp358
g3
(dp359
S'k'
I70
sg5
g6
sg7
I20
ssg8
(dp360
g10
g11
(g13
S'\x9au8[\x82m\xe1?'
tRp361
sg15
g11
(g13
S'\xce\x8b)\x9e\xe2\x88\xe2?'
tRp362
ssg17
g6
sa(dp363
g3
(dp364
S'k'
I71
sg5
g6
sg7
I20
ssg8
(dp365
g10
g11
(g13
S'\xa1\x14\xe1\x14+~\xe1?'
tRp366
sg15
g11
(g13
S'\xcb&$r\xb7\x97\xe2?'
tRp367
ssg17
g6
sa(dp368
g3
(dp369
S'k'
I72
sg5
g6
sg7
I20
ssg8
(dp370
g10
g11
(g13
S'\xab\x8b\xb4S\xc5d\xe1?'
tRp371
sg15
g11
(g13
S'\xbdx:f\x9d\x02\xe2?'
tRp372
ssg17
g6
sa(dp373
g3
(dp374
S'k'
I73
sg5
g6
sg7
I20
ssg8
(dp375
g10
g11
(g13
S'\xfa\xc6\x14P\xd9c\xe1?'
tRp376
sg15
g11
(g13
S'\x10\xb0\r\xce%Q\xe2?'
tRp377
ssg17
g6
sa(dp378
g3
(dp379
S'k'
I74
sg5
g6
sg7
I20
ssg8
(dp380
g10
g11
(g13
S'\xca\xea\xd9\x03\x8dR\xe1?'
tRp381
sg15
g11
(g13
S'\xcd\x81Hz\xfe@\xe2?'
tRp382
ssg17
g6
sa(dp383
g3
(dp384
S'k'
I75
sg5
g6
sg7
I20
ssg8
(dp385
g10
g11
(g13
S'\x8fX\xd6\x8c\xe9\\\xe1?'
tRp386
sg15
g11
(g13
S'\xae\xb7|\xe1\xa8r\xe2?'
tRp387
ssg17
g6
sa(dp388
g3
(dp389
S'k'
I76
sg5
g6
sg7
I20
ssg8
(dp390
g10
g11
(g13
S'\xb3s\xc2& D\xe1?'
tRp391
sg15
g11
(g13
S'G\x04\xc23\xd7S\xe2?'
tRp392
ssg17
g6
sa(dp393
g3
(dp394
S'k'
I77
sg5
g6
sg7
I20
ssg8
(dp395
g10
g11
(g13
S'\xd3\x87n$WQ\xe1?'
tRp396
sg15
g11
(g13
S'\x93G"\x9d\xc6`\xe2?'
tRp397
ssg17
g6
sa(dp398
g3
(dp399
S'k'
I78
sg5
g6
sg7
I20
ssg8
(dp400
g10
g11
(g13
S'\xf2\x19\xa7\x16\xff;\xe1?'
tRp401
sg15
g11
(g13
S'M> i\xddy\xe2?'
tRp402
ssg17
g6
sa(dp403
g3
(dp404
S'k'
I79
sg5
g6
sg7
I20
ssg8
(dp405
g10
g11
(g13
S'\xeb&\xf0\x15Oe\xe1?'
tRp406
sg15
g11
(g13
S'\xf2D\xce0\x133\xe2?'
tRp407
ssg17
g6
sa(dp408
g3
(dp409
S'k'
I80
sg5
g6
sg7
I20
ssg8
(dp410
g10
g11
(g13
S'\xcc\x94\xbc\x9f>>\xe1?'
tRp411
sg15
g11
(g13
S'\x1cX\xebF\xcaa\xe2?'
tRp412
ssg17
g6
sa(dp413
g3
(dp414
S'k'
I81
sg5
g6
sg7
I20
ssg8
(dp415
g10
g11
(g13
S'2\xb4\xadM\xeeJ\xe1?'
tRp416
sg15
g11
(g13
S'h\xa8"\x9f\xdbZ\xe2?'
tRp417
ssg17
g6
sa(dp418
g3
(dp419
S'k'
I82
sg5
g6
sg7
I20
ssg8
(dp420
g10
g11
(g13
S'\xbf\x8d\x8b\xf1\x91K\xe1?'
tRp421
sg15
g11
(g13
S"\x13'\xb3v\xdc1\xe2?"
tRp422
ssg17
g6
sa(dp423
g3
(dp424
S'k'
I83
sg5
g6
sg7
I20
ssg8
(dp425
g10
g11
(g13
S'\xf7\xdc\x90\xb9\xc1\x8b\xe1?'
tRp426
sg15
g11
(g13
S'SU\x11D\xef\x94\xe2?'
tRp427
ssg17
g6
sa(dp428
g3
(dp429
S'k'
I84
sg5
g6
sg7
I20
ssg8
(dp430
g10
g11
(g13
S'P\r\xf7B\xbag\xe1?'
tRp431
sg15
g11
(g13
S'\xe1\xcc@\xa01I\xe2?'
tRp432
ssg17
g6
sa(dp433
g3
(dp434
S'k'
I85
sg5
g6
sg7
I20
ssg8
(dp435
g10
g11
(g13
S'2_\xdf?\xb1\x83\xe1?'
tRp436
sg15
g11
(g13
S'\x0e\x83w\xf2~B\xe2?'
tRp437
ssg17
g6
sa(dp438
g3
(dp439
S'k'
I86
sg5
g6
sg7
I20
ssg8
(dp440
g10
g11
(g13
S'\x82\xbe\xdb<\xf1W\xe1?'
tRp441
sg15
g11
(g13
S'\xd7>\x82?\xac,\xe2?'
tRp442
ssg17
g6
sa(dp443
g3
(dp444
S'k'
I87
sg5
g6
sg7
I20
ssg8
(dp445
g10
g11
(g13
S'\x11\xb6N\x1a\xd7H\xe1?'
tRp446
sg15
g11
(g13
S'\xb7\x07\x10\x8aIv\xe2?'
tRp447
ssg17
g6
sa(dp448
g3
(dp449
S'k'
I88
sg5
g6
sg7
I20
ssg8
(dp450
g10
g11
(g13
S'vx\xfd\xd8\x7fq\xe1?'
tRp451
sg15
g11
(g13
S'\x82\xec\n\\G+\xe2?'
tRp452
ssg17
g6
sa(dp453
g3
(dp454
S'k'
I89
sg5
g6
sg7
I20
ssg8
(dp455
g10
g11
(g13
S'\xeavTWpT\xe1?'
tRp456
sg15
g11
(g13
S'\x1a\x1e\xcd2\xd8\x1b\xe2?'
tRp457
ssg17
g6
sa(dp458
g3
(dp459
S'k'
I90
sg5
g6
sg7
I20
ssg8
(dp460
g10
g11
(g13
S'\xf0\x1b\xe5\x8e\xf4`\xe1?'
tRp461
sg15
g11
(g13
S'\xb3\x15U\xb5\x89\x10\xe2?'
tRp462
ssg17
g6
sa(dp463
g3
(dp464
S'k'
I91
sg5
g6
sg7
I20
ssg8
(dp465
g10
g11
(g13
S'(_\x9a74D\xe1?'
tRp466
sg15
g11
(g13
S'\xb6\xe4\xe7\xa0n/\xe2?'
tRp467
ssg17
g6
sa(dp468
g3
(dp469
S'k'
I92
sg5
g6
sg7
I20
ssg8
(dp470
g10
g11
(g13
S':h\xb3\xa0}o\xe1?'
tRp471
sg15
g11
(g13
S'\x94\x83\xdf\x98\x17@\xe2?'
tRp472
ssg17
g6
sa(dp473
g3
(dp474
S'k'
I93
sg5
g6
sg7
I20
ssg8
(dp475
g10
g11
(g13
S'\x10\xdd\x7f[\xefJ\xe1?'
tRp476
sg15
g11
(g13
S'\xf8\x95 \x1bQ"\xe2?'
tRp477
ssg17
g6
sa(dp478
g3
(dp479
S'k'
I94
sg5
g6
sg7
I20
ssg8
(dp480
g10
g11
(g13
S',m\xb6\xd8\xc4N\xe1?'
tRp481
sg15
g11
(g13
S'\xcf\xfb"\xb1\xfeK\xe2?'
tRp482
ssg17
g6
sa(dp483
g3
(dp484
S'k'
I95
sg5
g6
sg7
I20
ssg8
(dp485
g10
g11
(g13
S'\x1a\xd7Q\x89cb\xe1?'
tRp486
sg15
g11
(g13
S'd|\xca\xb2\xcc\x11\xe2?'
tRp487
ssg17
g6
sa(dp488
g3
(dp489
S'k'
I96
sg5
g6
sg7
I20
ssg8
(dp490
g10
g11
(g13
S'N4\xdcA|T\xe1?'
tRp491
sg15
g11
(g13
S'=\xd5= \xb4\t\xe2?'
tRp492
ssg17
g6
sa(dp493
g3
(dp494
S'k'
I97
sg5
g6
sg7
I20
ssg8
(dp495
g10
g11
(g13
S'\xfa\x11^j/F\xe1?'
tRp496
sg15
g11
(g13
S'\xa3Z\x00\xbc\xa2\xf8\xe1?'
tRp497
ssg17
g6
sa(dp498
g3
(dp499
S'k'
I98
sg5
g6
sg7
I20
ssg8
(dp500
g10
g11
(g13
S'*T\x8f\x956?\xe1?'
tRp501
sg15
g11
(g13
S'1\xe24]\xe4\x19\xe2?'
tRp502
ssg17
g6
sa(dp503
g3
(dp504
S'k'
I99
sg5
g6
sg7
I20
ssg8
(dp505
g10
g11
(g13
S'\xa0A!G\xe2J\xe1?'
tRp506
sg15
g11
(g13
S'wB2a\x08\x18\xe2?'
tRp507
ssg17
g6
sa(dp508
g3
(dp509
S'k'
I100
sg5
g6
sg7
I20
ssg8
(dp510
g10
g11
(g13
S'\xe2\xee\x9cb\x00\x80\xe1?'
tRp511
sg15
g11
(g13
S'\x11\xc0\xd6\xe5\x05;\xe2?'
tRp512
ssg17
g6
sa(dp513
g3
(dp514
S'k'
I100
sg5
g6
sg7
I20
ssg8
(dp515
g10
g11
(g13
S'\x03&\xa0r\xfc\x9c\xe1?'
tRp516
sg15
g11
(g13
S'\xd4$\x8e\xd1\xcc6\xe2?'
tRp517
ssg17
g6
sa(dp518
g3
(dp519
S'k'
I200
sg5
g6
sg7
I20
ssg8
(dp520
g10
g11
(g13
S'\xb5\xc8O\xe3\xf5G\xe1?'
tRp521
sg15
g11
(g13
S'\x84*P\x97\xc9\xdb\xe1?'
tRp522
ssg17
g6
sa(dp523
g3
(dp524
S'k'
I300
sg5
g6
sg7
I20
ssg8
(dp525
g10
g11
(g13
S'N\x08y\x01\x92D\xe1?'
tRp526
sg15
g11
(g13
S'+\\\x10\x14&\x96\xe1?'
tRp527
ssg17
g6
sa(dp528
g3
(dp529
S'k'
I400
sg5
g6
sg7
I20
ssg8
(dp530
g10
g11
(g13
S'\xe7\xf7\x1a\xb2m?\xe1?'
tRp531
sg15
g11
(g13
S'\x81\x07\\J4\x8d\xe1?'
tRp532
ssg17
g6
sa(dp533
g3
(dp534
S'k'
I500
sg5
g6
sg7
I20
ssg8
(dp535
g10
g11
(g13
S'q\xecA\x82\x06X\xe1?'
tRp536
sg15
g11
(g13
S'\xa2\xbb)\xc7\xa2\x9b\xe1?'
tRp537
ssg17
g6
sa(dp538
g3
(dp539
S'k'
I600
sg5
g6
sg7
I20
ssg8
(dp540
g10
g11
(g13
S'\xa3\xf5\x02\xec8=\xe1?'
tRp541
sg15
g11
(g13
S'\x1c\x9e\xc4\x9b\xbf\x86\xe1?'
tRp542
ssg17
g6
sa(dp543
g3
(dp544
S'k'
I700
sg5
g6
sg7
I20
ssg8
(dp545
g10
g11
(g13
S';%\x12\xc4\tH\xe1?'
tRp546
sg15
g11
(g13
S'X\xaf\xa0\xa9\x17\x89\xe1?'
tRp547
ssg17
g6
sa(dp548
g3
(dp549
S'k'
I800
sg5
g6
sg7
I20
ssg8
(dp550
g10
g11
(g13
S'\xba\x91_A\x90?\xe1?'
tRp551
sg15
g11
(g13
S'\xecJ.n\x16\x80\xe1?'
tRp552
ssg17
g6
sa(dp553
g3
(dp554
S'k'
I900
sg5
g6
sg7
I20
ssg8
(dp555
g10
g11
(g13
S'\xce\xf5\xd8\xd2JA\xe1?'
tRp556
sg15
g11
(g13
S'\xe7Sy\x9c`o\xe1?'
tRp557
ssg17
g6
sa(dp558
g3
(dp559
S'k'
I1000
sg5
g6
sg7
I20
ssg8
(dp560
g10
g11
(g13
S'\xbc\xb7\xe6\xf4t9\xe1?'
tRp561
sg15
g11
(g13
S'\xbcc\\x\xe8f\xe1?'
tRp562
ssg17
g6
sa(dp563
g3
(dp564
S'k'
I1100
sg5
g6
sg7
I20
ssg8
(dp565
g10
g11
(g13
S'\xb8O\x93B\xc1;\xe1?'
tRp566
sg15
g11
(g13
S'u5\xef\x17"y\xe1?'
tRp567
ssg17
g6
sa(dp568
g3
(dp569
S'k'
I1200
sg5
g6
sg7
I20
ssg8
(dp570
g10
g11
(g13
S'\x0b\x1c\xd1\x10\xbcJ\xe1?'
tRp571
sg15
g11
(g13
S'\xda\x9d\xb5\x81\xdeo\xe1?'
tRp572
ssg17
g6
sa(dp573
g3
(dp574
S'k'
I1300
sg5
g6
sg7
I20
ssg8
(dp575
g10
g11
(g13
S'\x07d\x8b\x91\x04?\xe1?'
tRp576
sg15
g11
(g13
S'\x0e\xdfG\xcdmi\xe1?'
tRp577
ssg17
g6
sa(dp578
g3
(dp579
S'k'
I1400
sg5
g6
sg7
I20
ssg8
(dp580
g10
g11
(g13
S'\x88\xe5QY\x8c=\xe1?'
tRp581
sg15
g11
(g13
S'G\x15\xcb\xeb&l\xe1?'
tRp582
ssg17
g6
sa(dp583
g3
(dp584
S'k'
I1500
sg5
g6
sg7
I20
ssg8
(dp585
g10
g11
(g13
S'{\x85\xd66\xf4=\xe1?'
tRp586
sg15
g11
(g13
S'\xe5\xb7\xa2\x85\xe8i\xe1?'
tRp587
ssg17
g6
sa(dp588
g3
(dp589
S'k'
I1600
sg5
g6
sg7
I20
ssg8
(dp590
g10
g11
(g13
S'\x10\xc5\xb0pw:\xe1?'
tRp591
sg15
g11
(g13
S'\x064v\x1e\x04c\xe1?'
tRp592
ssg17
g6
sa(dp593
g3
(dp594
S'k'
I1700
sg5
g6
sg7
I20
ssg8
(dp595
g10
g11
(g13
S'g\xbb\x9d\xba\xe3N\xe1?'
tRp596
sg15
g11
(g13
S'a\xa5\xfaW\x14q\xe1?'
tRp597
ssg17
g6
sa(dp598
g3
(dp599
S'k'
I1800
sg5
g6
sg7
I20
ssg8
(dp600
g10
g11
(g13
S'\x17#\xe8N\xef;\xe1?'
tRp601
sg15
g11
(g13
S'\n*\xbd\x1d\xcaZ\xe1?'
tRp602
ssg17
g6
sa(dp603
g3
(dp604
S'k'
I1900
sg5
g6
sg7
I20
ssg8
(dp605
g10
g11
(g13
S'\x81\xd4\xf7b\xb6G\xe1?'
tRp606
sg15
g11
(g13
S')\xf7\x9d\xa4\xb2j\xe1?'
tRp607
ssg17
g6
sa(dp608
g3
(dp609
S'k'
I2000
sg5
g6
sg7
I20
ssg8
(dp610
g10
g11
(g13
S'\x01\xec;\xe299\xe1?'
tRp611
sg15
g11
(g13
S'\x8f\xdc\xc8\x0b%Y\xe1?'
tRp612
ssg17
g6
sa(dp613
g3
(dp614
S'k'
I2100
sg5
g6
sg7
I20
ssg8
(dp615
g10
g11
(g13
S'!\xee\xbf\xdcS=\xe1?'
tRp616
sg15
g11
(g13
S'\x06O\xfeGy_\xe1?'
tRp617
ssg17
g6
sa(dp618
g3
(dp619
S'k'
I2200
sg5
g6
sg7
I20
ssg8
(dp620
g10
g11
(g13
S'\xee\t\xb5\x1f\xa8;\xe1?'
tRp621
sg15
g11
(g13
S'y\x8ee\xdc\x9e_\xe1?'
tRp622
ssg17
g6
sa(dp623
g3
(dp624
S'k'
I2300
sg5
g6
sg7
I20
ssg8
(dp625
g10
g11
(g13
S'd\x99\x13XOF\xe1?'
tRp626
sg15
g11
(g13
S'\xd0\x81\x96{\x91]\xe1?'
tRp627
ssg17
g6
sa(dp628
g3
(dp629
S'k'
I2400
sg5
g6
sg7
I20
ssg8
(dp630
g10
g11
(g13
S'L`\x9e\x81\x858\xe1?'
tRp631
sg15
g11
(g13
S'Gh\xd1\x11\x1e\\\xe1?'
tRp632
ssg17
g6
sa(dp633
g3
(dp634
S'k'
I2500
sg5
g6
sg7
I20
ssg8
(dp635
g10
g11
(g13
S'TnN$D6\xe1?'
tRp636
sg15
g11
(g13
S'\xdb*\xf4QTX\xe1?'
tRp637
ssg17
g6
sa(dp638
g3
(dp639
S'k'
I2600
sg5
g6
sg7
I20
ssg8
(dp640
g10
g11
(g13
S'{[\x14\xa6\xbb<\xe1?'
tRp641
sg15
g11
(g13
S'o2\xbfn\xf5X\xe1?'
tRp642
ssg17
g6
sa(dp643
g3
(dp644
S'k'
I2700
sg5
g6
sg7
I20
ssg8
(dp645
g10
g11
(g13
S'\x85\xc5\xbb\xe8\x19<\xe1?'
tRp646
sg15
g11
(g13
S'\x16f2\x17]T\xe1?'
tRp647
ssg17
g6
sa(dp648
g3
(dp649
S'k'
I2800
sg5
g6
sg7
I20
ssg8
(dp650
g10
g11
(g13
S'\xe2\xd5\xcd\x8cS;\xe1?'
tRp651
sg15
g11
(g13
S'\xde9\x1e\xda\x04T\xe1?'
tRp652
ssg17
g6
sa(dp653
g3
(dp654
S'k'
I2888
sg5
g6
sg7
I20
ssg8
(dp655
g10
g11
(g13
S'c(\xe5V\xeb;\xe1?'
tRp656
sg15
g11
(g13
S'\xb9\xaarE\x80W\xe1?'
tRp657
ssg17
g6
sa.