(lp1
(dp2
S'setup'
p3
(dp4
S'k'
I1
sS'dataset'
p5
S'ego_facebook'
p6
sS'selectionMethod'
p7
S'RanDeg'
p8
sS'numberOfExperiments'
p9
I20
ssS'results'
p10
(dp11
S'MAE (per experiment)'
p12
cnumpy.core.multiarray
scalar
p13
(cnumpy
dtype
p14
(S'f8'
I0
I1
tRp15
(I3
S'<'
NNNI-1
I-1
I0
tbS'C\x066i?n\xe2?'
tRp16
sS'MAE (for all estimates)'
p17
g13
(g15
S'E*\x95]e\xeb\xf0?'
tRp18
ssS'dataset'
p19
g6
sa(dp20
g3
(dp21
S'k'
I2
sg5
g6
sg7
g8
sg9
I20
ssg10
(dp22
g12
g13
(g15
S'J\xe48\xfb|\xf5\xe3?'
tRp23
sg17
g13
(g15
S'zOvA\x9d\xa4\xed?'
tRp24
ssg19
g6
sa(dp25
g3
(dp26
S'k'
I3
sg5
g6
sg7
g8
sg9
I20
ssg10
(dp27
g12
g13
(g15
S'\x1a\x08\xea\xbb e\xe5?'
tRp28
sg17
g13
(g15
S'\xd1\xb4\x88\x9c\x1dA\xea?'
tRp29
ssg19
g6
sa(dp30
g3
(dp31
S'k'
I4
sg5
g6
sg7
g8
sg9
I20
ssg10
(dp32
g12
g13
(g15
S'\xa0$Y\xfc\x12\x8f\xe6?'
tRp33
sg17
g13
(g15
S'B\xd31S\x8a\xf9\xe8?'
tRp34
ssg19
g6
sa(dp35
g3
(dp36
S'k'
I5
sg5
g6
sg7
g8
sg9
I20
ssg10
(dp37
g12
g13
(g15
S'\xac\x92\xd7\x90\xc4\x96\xe2?'
tRp38
sg17
g13
(g15
S')A\t%\x85\x01\xe7?'
tRp39
ssg19
g6
sa(dp40
g3
(dp41
S'k'
I6
sg5
g6
sg7
g8
sg9
I20
ssg10
(dp42
g12
g13
(g15
S'\xf5Kb\x05\x98\x80\xe2?'
tRp43
sg17
g13
(g15
S'\\\x1c+7\x92\x95\xe7?'
tRp44
ssg19
g6
sa(dp45
g3
(dp46
S'k'
I7
sg5
g6
sg7
g8
sg9
I20
ssg10
(dp47
g12
g13
(g15
S'\xa5\x8f\xaf\xd2\xa5\xc2\xe2?'
tRp48
sg17
g13
(g15
S'\xf8\xb1\x1c\xbb\xa1|\xe6?'
tRp49
ssg19
g6
sa(dp50
g3
(dp51
S'k'
I8
sg5
g6
sg7
g8
sg9
I20
ssg10
(dp52
g12
g13
(g15
S'\xbb\xd9nu\xce\x06\xe4?'
tRp53
sg17
g13
(g15
S'e\xd3\x87G\x9f\x01\xe6?'
tRp54
ssg19
g6
sa(dp55
g3
(dp56
S'k'
I9
sg5
g6
sg7
g8
sg9
I20
ssg10
(dp57
g12
g13
(g15
S'\x13\xf0L\xeb\x92R\xe4?'
tRp58
sg17
g13
(g15
S'\x8b$\xba0p\xed\xe5?'
tRp59
ssg19
g6
sa(dp60
g3
(dp61
S'k'
I10
sg5
g6
sg7
g8
sg9
I20
ssg10
(dp62
g12
g13
(g15
S',y\xef\t[\x84\xe3?'
tRp63
sg17
g13
(g15
S'\x11\x02\xbe\xba+\x1e\xe6?'
tRp64
ssg19
g6
sa(dp65
g3
(dp66
S'k'
I11
sg5
g6
sg7
g8
sg9
I20
ssg10
(dp67
g12
g13
(g15
S'\xd0\x9a\x9e\x13\xf1\xc5\xe3?'
tRp68
sg17
g13
(g15
S"\x1e\x0c'\xac\x9fF\xe6?"
tRp69
ssg19
g6
sa(dp70
g3
(dp71
S'k'
I12
sg5
g6
sg7
g8
sg9
I20
ssg10
(dp72
g12
g13
(g15
S'\xdc\x9f{}\xeb\xfa\xe2?'
tRp73
sg17
g13
(g15
S'\xa9\x92\xfe\x8c\x99\xa1\xe5?'
tRp74
ssg19
g6
sa(dp75
g3
(dp76
S'k'
I13
sg5
g6
sg7
g8
sg9
I20
ssg10
(dp77
g12
g13
(g15
S'\xd0\xdb|7\xdd\xc9\xe3?'
tRp78
sg17
g13
(g15
S'\xd0\xf4\x02-&\xd4\xe5?'
tRp79
ssg19
g6
sa(dp80
g3
(dp81
S'k'
I14
sg5
g6
sg7
g8
sg9
I20
ssg10
(dp82
g12
g13
(g15
S'\xf9\x0f\x0f\xd4u\xe2\xe3?'
tRp83
sg17
g13
(g15
S'\xa6F\x19s\xc0\xcd\xe5?'
tRp84
ssg19
g6
sa(dp85
g3
(dp86
S'k'
I15
sg5
g6
sg7
g8
sg9
I20
ssg10
(dp87
g12
g13
(g15
S'\xb2G\xeeD\xe0T\xe3?'
tRp88
sg17
g13
(g15
S'\xc7\xf4\x92Ch\x0c\xe5?'
tRp89
ssg19
g6
sa(dp90
g3
(dp91
S'k'
I16
sg5
g6
sg7
g8
sg9
I20
ssg10
(dp92
g12
g13
(g15
S'\xcc\xc0\xc3\xf9\x022\xe3?'
tRp93
sg17
g13
(g15
S'\xc9\xd8\xdf\xe3\x10\xbd\xe4?'
tRp94
ssg19
g6
sa(dp95
g3
(dp96
S'k'
I17
sg5
g6
sg7
g8
sg9
I20
ssg10
(dp97
g12
g13
(g15
S'A=\xd6\x1c\xea\xe7\xe3?'
tRp98
sg17
g13
(g15
S'\xbeb\x82\xc1\x9b\xbe\xe4?'
tRp99
ssg19
g6
sa(dp100
g3
(dp101
S'k'
I18
sg5
g6
sg7
g8
sg9
I20
ssg10
(dp102
g12
g13
(g15
S'\x14\x18O\x8a\xd4\x02\xe3?'
tRp103
sg17
g13
(g15
S'\xa1^\xef\xc0\x8e=\xe4?'
tRp104
ssg19
g6
sa(dp105
g3
(dp106
S'k'
I19
sg5
g6
sg7
g8
sg9
I20
ssg10
(dp107
g12
g13
(g15
S'\xaa\xe2\xec\xd2\x81g\xe3?'
tRp108
sg17
g13
(g15
S'\xcb\xfdh\xe2c\x9d\xe4?'
tRp109
ssg19
g6
sa(dp110
g3
(dp111
S'k'
I20
sg5
g6
sg7
g8
sg9
I20
ssg10
(dp112
g12
g13
(g15
S'Qt-\xd3\x07\xa7\xe2?'
tRp113
sg17
g13
(g15
S'\r\xec\xaa\xd1\x97\xd3\xe4?'
tRp114
ssg19
g6
sa(dp115
g3
(dp116
S'k'
I21
sg5
g6
sg7
g8
sg9
I20
ssg10
(dp117
g12
g13
(g15
S'\xf1n\x8f5Q\xbf\xe2?'
tRp118
sg17
g13
(g15
S'\xcd\x01\xf0+\x93\xda\xe4?'
tRp119
ssg19
g6
sa(dp120
g3
(dp121
S'k'
I22
sg5
g6
sg7
g8
sg9
I20
ssg10
(dp122
g12
g13
(g15
S'<\xca\x1f\xe3;\x81\xe3?'
tRp123
sg17
g13
(g15
S'\x96^\x18\x95i\x8d\xe4?'
tRp124
ssg19
g6
sa(dp125
g3
(dp126
S'k'
I23
sg5
g6
sg7
g8
sg9
I20
ssg10
(dp127
g12
g13
(g15
S'\x01\xb0\xdf\xa0cV\xe3?'
tRp128
sg17
g13
(g15
S'\x1ctfi^s\xe4?'
tRp129
ssg19
g6
sa(dp130
g3
(dp131
S'k'
I24
sg5
g6
sg7
g8
sg9
I20
ssg10
(dp132
g12
g13
(g15
S'\x8ab \xfe\x1d@\xe3?'
tRp133
sg17
g13
(g15
S'V\x14\xab\xe4\xbe\x9c\xe4?'
tRp134
ssg19
g6
sa(dp135
g3
(dp136
S'k'
I25
sg5
g6
sg7
g8
sg9
I20
ssg10
(dp137
g12
g13
(g15
S'\x19\x9c\x8e\x883N\xe3?'
tRp138
sg17
g13
(g15
S'\x9b\xf8\x1dtP\xfd\xe3?'
tRp139
ssg19
g6
sa(dp140
g3
(dp141
S'k'
I26
sg5
g6
sg7
g8
sg9
I20
ssg10
(dp142
g12
g13
(g15
S'\xd3\x01\xbe\x0b\xa2-\xe3?'
tRp143
sg17
g13
(g15
S'G\xe2-\x90\xe7\x84\xe4?'
tRp144
ssg19
g6
sa(dp145
g3
(dp146
S'k'
I27
sg5
g6
sg7
g8
sg9
I20
ssg10
(dp147
g12
g13
(g15
S'\xc8!Y\xdd\xf4\xbd\xe2?'
tRp148
sg17
g13
(g15
S'\x16*\x85\x039+\xe4?'
tRp149
ssg19
g6
sa(dp150
g3
(dp151
S'k'
I28
sg5
g6
sg7
g8
sg9
I20
ssg10
(dp152
g12
g13
(g15
S"\xda\xf6\xca{]'\xe4?"
tRp153
sg17
g13
(g15
S'\xc5\x15\xb9\x19\xd7\xaf\xe4?'
tRp154
ssg19
g6
sa(dp155
g3
(dp156
S'k'
I29
sg5
g6
sg7
g8
sg9
I20
ssg10
(dp157
g12
g13
(g15
S'\xb6\x1d\xcf\x966\x1e\xe3?'
tRp158
sg17
g13
(g15
S'\xa1\xa5de\x17\x84\xe4?'
tRp159
ssg19
g6
sa(dp160
g3
(dp161
S'k'
I30
sg5
g6
sg7
g8
sg9
I20
ssg10
(dp162
g12
g13
(g15
S'\x12N?\x16e\x08\xe3?'
tRp163
sg17
g13
(g15
S'\xe6\r\xc0\xcd$\t\xe4?'
tRp164
ssg19
g6
sa(dp165
g3
(dp166
S'k'
I31
sg5
g6
sg7
g8
sg9
I20
ssg10
(dp167
g12
g13
(g15
S' \x02"\xb5$\x14\xe3?'
tRp168
sg17
g13
(g15
S'+\xd4\x1b15i\xe4?'
tRp169
ssg19
g6
sa(dp170
g3
(dp171
S'k'
I32
sg5
g6
sg7
g8
sg9
I20
ssg10
(dp172
g12
g13
(g15
S'\xa7\x02\x90\x88g-\xe4?'
tRp173
sg17
g13
(g15
S'R-w\xa6Z\xc5\xe4?'
tRp174
ssg19
g6
sa(dp175
g3
(dp176
S'k'
I33
sg5
g6
sg7
g8
sg9
I20
ssg10
(dp177
g12
g13
(g15
S'ed\xd3\x12\x15\xc4\xe3?'
tRp178
sg17
g13
(g15
S'D~\x89&72\xe4?'
tRp179
ssg19
g6
sa(dp180
g3
(dp181
S'k'
I34
sg5
g6
sg7
g8
sg9
I20
ssg10
(dp182
g12
g13
(g15
S'C+t\xa80h\xe4?'
tRp183
sg17
g13
(g15
S'48b\xc3\xde\xcc\xe4?'
tRp184
ssg19
g6
sa(dp185
g3
(dp186
S'k'
I35
sg5
g6
sg7
g8
sg9
I20
ssg10
(dp187
g12
g13
(g15
S'\x04\xbc5UV\x1e\xe4?'
tRp188
sg17
g13
(g15
S'\x14\x07\xec,^\xaf\xe4?'
tRp189
ssg19
g6
sa(dp190
g3
(dp191
S'k'
I36
sg5
g6
sg7
g8
sg9
I20
ssg10
(dp192
g12
g13
(g15
S'\xf4\xfc\x08\xc32\x8c\xe3?'
tRp193
sg17
g13
(g15
S'm\xd9\xa5U\x0c\x00\xe4?'
tRp194
ssg19
g6
sa(dp195
g3
(dp196
S'k'
I37
sg5
g6
sg7
g8
sg9
I20
ssg10
(dp197
g12
g13
(g15
S'l\xc3\x1d\xea\xde\x94\xe2?'
tRp198
sg17
g13
(g15
S'\xfd\xaf)[\x00\x87\xe3?'
tRp199
ssg19
g6
sa(dp200
g3
(dp201
S'k'
I38
sg5
g6
sg7
g8
sg9
I20
ssg10
(dp202
g12
g13
(g15
S'~e\xf5\xac\x07\xf3\xe2?'
tRp203
sg17
g13
(g15
S'\xb2\xaa\xdc<f\xcf\xe3?'
tRp204
ssg19
g6
sa(dp205
g3
(dp206
S'k'
I39
sg5
g6
sg7
g8
sg9
I20
ssg10
(dp207
g12
g13
(g15
S'\xd8 \xb40\xa9e\xe3?'
tRp208
sg17
g13
(g15
S'\x876\x16\x96X:\xe4?'
tRp209
ssg19
g6
sa(dp210
g3
(dp211
S'k'
I40
sg5
g6
sg7
g8
sg9
I20
ssg10
(dp212
g12
g13
(g15
S"-\x04'(\x12<\xe3?"
tRp213
sg17
g13
(g15
S'\x04\xd2\xf9!\t\xc3\xe3?'
tRp214
ssg19
g6
sa(dp215
g3
(dp216
S'k'
I41
sg5
g6
sg7
g8
sg9
I20
ssg10
(dp217
g12
g13
(g15
S'^\xa8\x9fHS\xce\xe3?'
tRp218
sg17
g13
(g15
S'\xdf\x05u\xc9Np\xe4?'
tRp219
ssg19
g6
sa(dp220
g3
(dp221
S'k'
I42
sg5
g6
sg7
g8
sg9
I20
ssg10
(dp222
g12
g13
(g15
S'\xc9W\x07M1\xb2\xe3?'
tRp223
sg17
g13
(g15
S'uM*^X\xbd\xe4?'
tRp224
ssg19
g6
sa(dp225
g3
(dp226
S'k'
I43
sg5
g6
sg7
g8
sg9
I20
ssg10
(dp227
g12
g13
(g15
S'\xff-\xd2\xfc\xcdh\xe3?'
tRp228
sg17
g13
(g15
S'r\xa4\x91/g\x15\xe4?'
tRp229
ssg19
g6
sa(dp230
g3
(dp231
S'k'
I44
sg5
g6
sg7
g8
sg9
I20
ssg10
(dp232
g12
g13
(g15
S'0E<\x02\xc5\x03\xe4?'
tRp233
sg17
g13
(g15
S'A^\xa5\x85\x0bz\xe4?'
tRp234
ssg19
g6
sa(dp235
g3
(dp236
S'k'
I45
sg5
g6
sg7
g8
sg9
I20
ssg10
(dp237
g12
g13
(g15
S'\xc4\xec\xd8\xff\xfa_\xe3?'
tRp238
sg17
g13
(g15
S'\xa3\xdd[\x9d\xfc\t\xe4?'
tRp239
ssg19
g6
sa(dp240
g3
(dp241
S'k'
I46
sg5
g6
sg7
g8
sg9
I20
ssg10
(dp242
g12
g13
(g15
S'\x89\xf6\xc7\x94\x8e~\xe3?'
tRp243
sg17
g13
(g15
S'+\xce\xcd\xf2\xd1\x18\xe4?'
tRp244
ssg19
g6
sa(dp245
g3
(dp246
S'k'
I47
sg5
g6
sg7
g8
sg9
I20
ssg10
(dp247
g12
g13
(g15
S'Q\xdc\xd8"\xc9\xc4\xe3?'
tRp248
sg17
g13
(g15
S'~\xc0V+Pi\xe4?'
tRp249
ssg19
g6
sa(dp250
g3
(dp251
S'k'
I48
sg5
g6
sg7
g8
sg9
I20
ssg10
(dp252
g12
g13
(g15
S'\xb1\xa2e\x97\xe3\x1f\xe3?'
tRp253
sg17
g13
(g15
S'\xf1@\xca\xcdT\xca\xe3?'
tRp254
ssg19
g6
sa(dp255
g3
(dp256
S'k'
I49
sg5
g6
sg7
g8
sg9
I20
ssg10
(dp257
g12
g13
(g15
S'\x00\x89\x18\xaa+4\xe3?'
tRp258
sg17
g13
(g15
S'o/I\x04\xbd\x18\xe4?'
tRp259
ssg19
g6
sa(dp260
g3
(dp261
S'k'
I50
sg5
g6
sg7
g8
sg9
I20
ssg10
(dp262
g12
g13
(g15
S'\x10\xe1\xe0\x9e]?\xe3?'
tRp263
sg17
g13
(g15
S'\xf23\xd0M/\xd9\xe3?'
tRp264
ssg19
g6
sa(dp265
g3
(dp266
S'k'
I51
sg5
g6
sg7
g8
sg9
I20
ssg10
(dp267
g12
g13
(g15
S'\xff>\x83\xee\x80\xe8\xe3?'
tRp268
sg17
g13
(g15
S'\xd1\xde\x18\x0bMZ\xe4?'
tRp269
ssg19
g6
sa(dp270
g3
(dp271
S'k'
I52
sg5
g6
sg7
g8
sg9
I20
ssg10
(dp272
g12
g13
(g15
S'\xc1>r\x8fE\xf8\xe2?'
tRp273
sg17
g13
(g15
S'.\xfd\xf9=\x07l\xe3?'
tRp274
ssg19
g6
sa(dp275
g3
(dp276
S'k'
I53
sg5
g6
sg7
g8
sg9
I20
ssg10
(dp277
g12
g13
(g15
S'\x7fH\xa9@\x84\x17\xe3?'
tRp278
sg17
g13
(g15
S'\x87\xe5\x89\x92{\xa0\xe3?'
tRp279
ssg19
g6
sa(dp280
g3
(dp281
S'k'
I54
sg5
g6
sg7
g8
sg9
I20
ssg10
(dp282
g12
g13
(g15
S'\x85\x99\xd0#Jt\xe3?'
tRp283
sg17
g13
(g15
S'\xfaW\x99\xa8\xa8\xef\xe3?'
tRp284
ssg19
g6
sa(dp285
g3
(dp286
S'k'
I55
sg5
g6
sg7
g8
sg9
I20
ssg10
(dp287
g12
g13
(g15
S'\x9b\xaf\xa6\x9f\x95\xc1\xe2?'
tRp288
sg17
g13
(g15
S'z\x1f4\xc4\x1cu\xe3?'
tRp289
ssg19
g6
sa(dp290
g3
(dp291
S'k'
I56
sg5
g6
sg7
g8
sg9
I20
ssg10
(dp292
g12
g13
(g15
S'\xacERuU&\xe3?'
tRp293
sg17
g13
(g15
S',\xd07-\xa0\xdb\xe3?'
tRp294
ssg19
g6
sa(dp295
g3
(dp296
S'k'
I57
sg5
g6
sg7
g8
sg9
I20
ssg10
(dp297
g12
g13
(g15
S'\xf2\x02J\xa0\x1fY\xe3?'
tRp298
sg17
g13
(g15
S'\x98*$\x03\xb3\xd9\xe3?'
tRp299
ssg19
g6
sa(dp300
g3
(dp301
S'k'
I58
sg5
g6
sg7
g8
sg9
I20
ssg10
(dp302
g12
g13
(g15
S'0v\xcdm\xd3\xcd\xe3?'
tRp303
sg17
g13
(g15
S'\x94J\x02\xd7\xa8\x1b\xe4?'
tRp304
ssg19
g6
sa(dp305
g3
(dp306
S'k'
I59
sg5
g6
sg7
g8
sg9
I20
ssg10
(dp307
g12
g13
(g15
S'h\xa1I\x04;`\xe3?'
tRp308
sg17
g13
(g15
S"'\x828\xf8\xf9\xec\xe3?"
tRp309
ssg19
g6
sa(dp310
g3
(dp311
S'k'
I60
sg5
g6
sg7
g8
sg9
I20
ssg10
(dp312
g12
g13
(g15
S'j\x03\xee\x16\x8d\x89\xe3?'
tRp313
sg17
g13
(g15
S'\xaf\xd4\xf7\xd3\x02\x01\xe4?'
tRp314
ssg19
g6
sa(dp315
g3
(dp316
S'k'
I61
sg5
g6
sg7
g8
sg9
I20
ssg10
(dp317
g12
g13
(g15
S'=~y\xf6\xb5m\xe3?'
tRp318
sg17
g13
(g15
S'k\xd7\x98\xafI\xe0\xe3?'
tRp319
ssg19
g6
sa(dp320
g3
(dp321
S'k'
I62
sg5
g6
sg7
g8
sg9
I20
ssg10
(dp322
g12
g13
(g15
S'8\xfd\x7f}\xa7\xd2\xe3?'
tRp323
sg17
g13
(g15
S'\xf6F1\xf3\xd81\xe4?'
tRp324
ssg19
g6
sa(dp325
g3
(dp326
S'k'
I63
sg5
g6
sg7
g8
sg9
I20
ssg10
(dp327
g12
g13
(g15
S'\xeen\x13\xbe!\xdb\xe3?'
tRp328
sg17
g13
(g15
S'E\xfc\xdb\x10\xe2\x1e\xe4?'
tRp329
ssg19
g6
sa(dp330
g3
(dp331
S'k'
I64
sg5
g6
sg7
g8
sg9
I20
ssg10
(dp332
g12
g13
(g15
S'\xaf.Fgy\x14\xe3?'
tRp333
sg17
g13
(g15
S'\xab8\xd9+\xeb\xc7\xe3?'
tRp334
ssg19
g6
sa(dp335
g3
(dp336
S'k'
I65
sg5
g6
sg7
g8
sg9
I20
ssg10
(dp337
g12
g13
(g15
S'c|\xdf\x96\xe76\xe3?'
tRp338
sg17
g13
(g15
S'n)\x06\x95;\xb1\xe3?'
tRp339
ssg19
g6
sa(dp340
g3
(dp341
S'k'
I66
sg5
g6
sg7
g8
sg9
I20
ssg10
(dp342
g12
g13
(g15
S'r;\xc1d\xdf\x17\xe3?'
tRp343
sg17
g13
(g15
S'HA&\n\xbdr\xe3?'
tRp344
ssg19
g6
sa(dp345
g3
(dp346
S'k'
I67
sg5
g6
sg7
g8
sg9
I20
ssg10
(dp347
g12
g13
(g15
S'\r\xc1\xc6s:\x1e\xe3?'
tRp348
sg17
g13
(g15
S'\x0f\xc8`\x1ek\xca\xe3?'
tRp349
ssg19
g6
sa(dp350
g3
(dp351
S'k'
I68
sg5
g6
sg7
g8
sg9
I20
ssg10
(dp352
g12
g13
(g15
S'\xa2\xe8^n\x9f@\xe3?'
tRp353
sg17
g13
(g15
S'\xe6\xb3\\\xb4s\x96\xe3?'
tRp354
ssg19
g6
sa(dp355
g3
(dp356
S'k'
I69
sg5
g6
sg7
g8
sg9
I20
ssg10
(dp357
g12
g13
(g15
S'\x17\xb5\xf5\xe0n\xbd\xe3?'
tRp358
sg17
g13
(g15
S'\xd1\x08\x07$_\x08\xe4?'
tRp359
ssg19
g6
sa(dp360
g3
(dp361
S'k'
I70
sg5
g6
sg7
g8
sg9
I20
ssg10
(dp362
g12
g13
(g15
S'pl\ru^\x9c\xe3?'
tRp363
sg17
g13
(g15
S'+\x16\x03\xd4\x10\xfd\xe3?'
tRp364
ssg19
g6
sa(dp365
g3
(dp366
S'k'
I71
sg5
g6
sg7
g8
sg9
I20
ssg10
(dp367
g12
g13
(g15
S"'\xcfz\xbcg\xc7\xe3?"
tRp368
sg17
g13
(g15
S'\x9d*rS\xf7W\xe4?'
tRp369
ssg19
g6
sa(dp370
g3
(dp371
S'k'
I72
sg5
g6
sg7
g8
sg9
I20
ssg10
(dp372
g12
g13
(g15
S'7\xf0\xf9\x89\xe8\xa8\xe3?'
tRp373
sg17
g13
(g15
S'\x051k\xba\xda\xf5\xe3?'
tRp374
ssg19
g6
sa(dp375
g3
(dp376
S'k'
I73
sg5
g6
sg7
g8
sg9
I20
ssg10
(dp377
g12
g13
(g15
S'\xff\x1e\xc8\xa2D\xde\xe3?'
tRp378
sg17
g13
(g15
S'\x85\x07\xb0X\xacX\xe4?'
tRp379
ssg19
g6
sa(dp380
g3
(dp381
S'k'
I74
sg5
g6
sg7
g8
sg9
I20
ssg10
(dp382
g12
g13
(g15
S'w\xfe\x7fK\x89i\xe3?'
tRp383
sg17
g13
(g15
S'\xa4\xa1n\x8cW\xd2\xe3?'
tRp384
ssg19
g6
sa(dp385
g3
(dp386
S'k'
I75
sg5
g6
sg7
g8
sg9
I20
ssg10
(dp387
g12
g13
(g15
S'\xff\xf3j\xc4\x88x\xe3?'
tRp388
sg17
g13
(g15
S'\x87\x11\x05\xf6\xc9\xf2\xe3?'
tRp389
ssg19
g6
sa(dp390
g3
(dp391
S'k'
I76
sg5
g6
sg7
g8
sg9
I20
ssg10
(dp392
g12
g13
(g15
S'\xfd5\xe0\xc0\x1fe\xe3?'
tRp393
sg17
g13
(g15
S'\xbb\xae4\x7fO\xbe\xe3?'
tRp394
ssg19
g6
sa(dp395
g3
(dp396
S'k'
I77
sg5
g6
sg7
g8
sg9
I20
ssg10
(dp397
g12
g13
(g15
S'R\x96wK\xb1e\xe3?'
tRp398
sg17
g13
(g15
S'+\xab^\xfc\xec\xc7\xe3?'
tRp399
ssg19
g6
sa(dp400
g3
(dp401
S'k'
I78
sg5
g6
sg7
g8
sg9
I20
ssg10
(dp402
g12
g13
(g15
S'\x976\x0e\x07\xafo\xe3?'
tRp403
sg17
g13
(g15
S'\x85W\xf99\x1a\xd3\xe3?'
tRp404
ssg19
g6
sa(dp405
g3
(dp406
S'k'
I79
sg5
g6
sg7
g8
sg9
I20
ssg10
(dp407
g12
g13
(g15
S'\xc2M\t\x01A~\xe3?'
tRp408
sg17
g13
(g15
S'\xcb\xa4\xd5\xdc$\xe0\xe3?'
tRp409
ssg19
g6
sa(dp410
g3
(dp411
S'k'
I80
sg5
g6
sg7
g8
sg9
I20
ssg10
(dp412
g12
g13
(g15
S'7\x81\x9eIR\xc2\xe3?'
tRp413
sg17
g13
(g15
S'\x88\xe0\xd8\x1c\xa8/\xe4?'
tRp414
ssg19
g6
sa(dp415
g3
(dp416
S'k'
I81
sg5
g6
sg7
g8
sg9
I20
ssg10
(dp417
g12
g13
(g15
S'\xcbW[\xd6W\x0f\xe4?'
tRp418
sg17
g13
(g15
S'P\xc1\xb9\x1d\xd87\xe4?'
tRp419
ssg19
g6
sa(dp420
g3
(dp421
S'k'
I82
sg5
g6
sg7
g8
sg9
I20
ssg10
(dp422
g12
g13
(g15
S'j\xdc_\x12?!\xe3?'
tRp423
sg17
g13
(g15
S"\xf9'\r\xc5\xe4\xa4\xe3?"
tRp424
ssg19
g6
sa(dp425
g3
(dp426
S'k'
I83
sg5
g6
sg7
g8
sg9
I20
ssg10
(dp427
g12
g13
(g15
S'O\x88\x01\td\xf8\xe2?'
tRp428
sg17
g13
(g15
S'm\xb8\r\xec\x1b{\xe3?'
tRp429
ssg19
g6
sa(dp430
g3
(dp431
S'k'
I84
sg5
g6
sg7
g8
sg9
I20
ssg10
(dp432
g12
g13
(g15
S'\xde\xfc\x9d1j\xab\xe3?'
tRp433
sg17
g13
(g15
S'\xfa\xaa\x819t\x0c\xe4?'
tRp434
ssg19
g6
sa(dp435
g3
(dp436
S'k'
I85
sg5
g6
sg7
g8
sg9
I20
ssg10
(dp437
g12
g13
(g15
S'\xd8?\xb6\xf0\xb9\xfd\xe2?'
tRp438
sg17
g13
(g15
S'\xdb\xed\xbf\xf0.w\xe3?'
tRp439
ssg19
g6
sa(dp440
g3
(dp441
S'k'
I86
sg5
g6
sg7
g8
sg9
I20
ssg10
(dp442
g12
g13
(g15
S'\x14\xe7\x155\x00h\xe3?'
tRp443
sg17
g13
(g15
S'O\xbf~\xea\xdf\xd4\xe3?'
tRp444
ssg19
g6
sa(dp445
g3
(dp446
S'k'
I87
sg5
g6
sg7
g8
sg9
I20
ssg10
(dp447
g12
g13
(g15
S'\x9d\x8au\xe62\r\xe3?'
tRp448
sg17
g13
(g15
S'd\xf0\xaa\x08\xe3l\xe3?'
tRp449
ssg19
g6
sa(dp450
g3
(dp451
S'k'
I88
sg5
g6
sg7
g8
sg9
I20
ssg10
(dp452
g12
g13
(g15
S'\x9c\xc4n\x16}\x95\xe3?'
tRp453
sg17
g13
(g15
S'\xb7\xebSx\xe1\xc1\xe3?'
tRp454
ssg19
g6
sa(dp455
g3
(dp456
S'k'
I89
sg5
g6
sg7
g8
sg9
I20
ssg10
(dp457
g12
g13
(g15
S'\x89E^\xfd\xf2\x85\xe3?'
tRp458
sg17
g13
(g15
S'n"M5y\xed\xe3?'
tRp459
ssg19
g6
sa(dp460
g3
(dp461
S'k'
I90
sg5
g6
sg7
g8
sg9
I20
ssg10
(dp462
g12
g13
(g15
S'\xc3\x89\xd3\x815@\xe3?'
tRp463
sg17
g13
(g15
S'7:yoa\xa6\xe3?'
tRp464
ssg19
g6
sa(dp465
g3
(dp466
S'k'
I91
sg5
g6
sg7
g8
sg9
I20
ssg10
(dp467
g12
g13
(g15
S'\x8b(]s\xfd_\xe3?'
tRp468
sg17
g13
(g15
S'l\xf6\xd9=W\x9c\xe3?'
tRp469
ssg19
g6
sa(dp470
g3
(dp471
S'k'
I92
sg5
g6
sg7
g8
sg9
I20
ssg10
(dp472
g12
g13
(g15
S'\xff5\x04\x81\x9fc\xe3?'
tRp473
sg17
g13
(g15
S'\x05\xbew\xf0{\xa3\xe3?'
tRp474
ssg19
g6
sa(dp475
g3
(dp476
S'k'
I93
sg5
g6
sg7
g8
sg9
I20
ssg10
(dp477
g12
g13
(g15
S'+\xf1&\x1fg\xb3\xe3?'
tRp478
sg17
g13
(g15
S'\xc4\xe7\xf6\xef\xb8\xf6\xe3?'
tRp479
ssg19
g6
sa(dp480
g3
(dp481
S'k'
I94
sg5
g6
sg7
g8
sg9
I20
ssg10
(dp482
g12
g13
(g15
S'e\xe9\xd5\x19\x08F\xe3?'
tRp483
sg17
g13
(g15
S'\x10\xc0\xfcS\x19y\xe3?'
tRp484
ssg19
g6
sa(dp485
g3
(dp486
S'k'
I95
sg5
g6
sg7
g8
sg9
I20
ssg10
(dp487
g12
g13
(g15
S'[\x94\xba\x1c\xba-\xe3?'
tRp488
sg17
g13
(g15
S'RoB;\x00\x8e\xe3?'
tRp489
ssg19
g6
sa(dp490
g3
(dp491
S'k'
I96
sg5
g6
sg7
g8
sg9
I20
ssg10
(dp492
g12
g13
(g15
S'S\xf0\x0b\x1a\xecx\xe3?'
tRp493
sg17
g13
(g15
S'F\x0f\xc2z\xa4\xbd\xe3?'
tRp494
ssg19
g6
sa(dp495
g3
(dp496
S'k'
I97
sg5
g6
sg7
g8
sg9
I20
ssg10
(dp497
g12
g13
(g15
S'8\xaa\xbe\xf7\x98\xcd\xe3?'
tRp498
sg17
g13
(g15
S'\x9ae.N\xbb\x11\xe4?'
tRp499
ssg19
g6
sa(dp500
g3
(dp501
S'k'
I98
sg5
g6
sg7
g8
sg9
I20
ssg10
(dp502
g12
g13
(g15
S'\x82J$\xa8\xd28\xe3?'
tRp503
sg17
g13
(g15
S"'\xb7F\t}\x82\xe3?"
tRp504
ssg19
g6
sa(dp505
g3
(dp506
S'k'
I99
sg5
g6
sg7
g8
sg9
I20
ssg10
(dp507
g12
g13
(g15
S'J\xa7F\xc3\xce\xb5\xe3?'
tRp508
sg17
g13
(g15
S'\xb8\x83\x14M\x9c\xfc\xe3?'
tRp509
ssg19
g6
sa(dp510
g3
(dp511
S'k'
I100
sg5
g6
sg7
g8
sg9
I20
ssg10
(dp512
g12
g13
(g15
S'\xff[\x9ar\x97Y\xe3?'
tRp513
sg17
g13
(g15
S'\x04\t\xf0J+\xa9\xe3?'
tRp514
ssg19
g6
sa(dp515
g3
(dp516
S'k'
I100
sg5
g6
sg7
g8
sg9
I20
ssg10
(dp517
g12
g13
(g15
S'\xca\xd1t} \x9e\xe3?'
tRp518
sg17
g13
(g15
S'\x7f\xb4\xbb\xd6\xed\xec\xe3?'
tRp519
ssg19
g6
sa(dp520
g3
(dp521
S'k'
I200
sg5
g6
sg7
g8
sg9
I20
ssg10
(dp522
g12
g13
(g15
S'\x15\x03mM\xbf\xb2\xe3?'
tRp523
sg17
g13
(g15
S'\xa2\xef\xe7E*\xcd\xe3?'
tRp524
ssg19
g6
sa(dp525
g3
(dp526
S'k'
I300
sg5
g6
sg7
g8
sg9
I20
ssg10
(dp527
g12
g13
(g15
S'~Q9\x04\xb6\x94\xe3?'
tRp528
sg17
g13
(g15
S'N\xa1\xd2\x01\xbb\xa1\xe3?'
tRp529
ssg19
g6
sa(dp530
g3
(dp531
S'k'
I400
sg5
g6
sg7
g8
sg9
I20
ssg10
(dp532
g12
g13
(g15
S'Re9\xe0\xaal\xe3?'
tRp533
sg17
g13
(g15
S'fw\xbe\x870t\xe3?'
tRp534
ssg19
g6
sa(dp535
g3
(dp536
S'k'
I500
sg5
g6
sg7
g8
sg9
I20
ssg10
(dp537
g12
g13
(g15
S'\xdf\xc6*Tqs\xe3?'
tRp538
sg17
g13
(g15
S's\x03\x81K\xd2{\xe3?'
tRp539
ssg19
g6
sa(dp540
g3
(dp541
S'k'
I600
sg5
g6
sg7
g8
sg9
I20
ssg10
(dp542
g12
g13
(g15
S'\xd1b\xed\x17ml\xe3?'
tRp543
sg17
g13
(g15
S'?61P\x8bv\xe3?'
tRp544
ssg19
g6
sa(dp545
g3
(dp546
S'k'
I700
sg5
g6
sg7
g8
sg9
I20
ssg10
(dp547
g12
g13
(g15
S'\x83u:\xb2\xc2[\xe3?'
tRp548
sg17
g13
(g15
S'\x1ek\xb8\xb2\x88c\xe3?'
tRp549
ssg19
g6
sa(dp550
g3
(dp551
S'k'
I800
sg5
g6
sg7
g8
sg9
I20
ssg10
(dp552
g12
g13
(g15
S'\xd6\xbe\x13]\xb7R\xe3?'
tRp553
sg17
g13
(g15
S'\xdb\x16w\xb6\xd5X\xe3?'
tRp554
ssg19
g6
sa(dp555
g3
(dp556
S'k'
I900
sg5
g6
sg7
g8
sg9
I20
ssg10
(dp557
g12
g13
(g15
S'#\xf8\xefb\xe0|\xe3?'
tRp558
sg17
g13
(g15
S'o\xef\xf6 \x94\x82\xe3?'
tRp559
ssg19
g6
sa(dp560
g3
(dp561
S'k'
I1000
sg5
g6
sg7
g8
sg9
I20
ssg10
(dp562
g12
g13
(g15
S'\xa4"\x13]\xadn\xe3?'
tRp563
sg17
g13
(g15
S'\xfe\x9f\xac"tw\xe3?'
tRp564
ssg19
g6
sa(dp565
g3
(dp566
S'k'
I1100
sg5
g6
sg7
g8
sg9
I20
ssg10
(dp567
g12
g13
(g15
S'\xb6\xc5\x1b\xaekB\xe3?'
tRp568
sg17
g13
(g15
S'\x014\x16\x04\xcfH\xe3?'
tRp569
ssg19
g6
sa(dp570
g3
(dp571
S'k'
I1200
sg5
g6
sg7
g8
sg9
I20
ssg10
(dp572
g12
g13
(g15
S'N89\x84\xf0p\xe3?'
tRp573
sg17
g13
(g15
S'\x8f}\xdaq\xc1v\xe3?'
tRp574
ssg19
g6
sa(dp575
g3
(dp576
S'k'
I1300
sg5
g6
sg7
g8
sg9
I20
ssg10
(dp577
g12
g13
(g15
S'\xd1zE\x95&e\xe3?'
tRp578
sg17
g13
(g15
S'n\xf6\x98\x9f!j\xe3?'
tRp579
ssg19
g6
sa(dp580
g3
(dp581
S'k'
I1400
sg5
g6
sg7
g8
sg9
I20
ssg10
(dp582
g12
g13
(g15
S'\xc1j\x0e\x07\xc9\\\xe3?'
tRp583
sg17
g13
(g15
S'\xba\x97V\xbe"a\xe3?'
tRp584
ssg19
g6
sa(dp585
g3
(dp586
S'k'
I1500
sg5
g6
sg7
g8
sg9
I20
ssg10
(dp587
g12
g13
(g15
S'\xa7\xef\x11D\xf2\x82\xe3?'
tRp588
sg17
g13
(g15
S'\x03NM\xf1\x12\x85\xe3?'
tRp589
ssg19
g6
sa(dp590
g3
(dp591
S'k'
I1600
sg5
g6
sg7
g8
sg9
I20
ssg10
(dp592
g12
g13
(g15
S'\x80\xc2\xed7!k\xe3?'
tRp593
sg17
g13
(g15
S"3B.'?o\xe3?"
tRp594
ssg19
g6
sa(dp595
g3
(dp596
S'k'
I1700
sg5
g6
sg7
g8
sg9
I20
ssg10
(dp597
g12
g13
(g15
S'\x8a\xef\xf0n\x8an\xe3?'
tRp598
sg17
g13
(g15
S'\xebYc\x02\xafs\xe3?'
tRp599
ssg19
g6
sa(dp600
g3
(dp601
S'k'
I1800
sg5
g6
sg7
g8
sg9
I20
ssg10
(dp602
g12
g13
(g15
S'o\xd4\xa7%}e\xe3?'
tRp603
sg17
g13
(g15
S'\xc5\x84_\xf4\xabi\xe3?'
tRp604
ssg19
g6
sa(dp605
g3
(dp606
S'k'
I1900
sg5
g6
sg7
g8
sg9
I20
ssg10
(dp607
g12
g13
(g15
S'\xb8\n\xa0\x1d9j\xe3?'
tRp608
sg17
g13
(g15
S'j\x1aPn\xf2m\xe3?'
tRp609
ssg19
g6
sa(dp610
g3
(dp611
S'k'
I2000
sg5
g6
sg7
g8
sg9
I20
ssg10
(dp612
g12
g13
(g15
S'\xe0\x92\xb0\xe7\xb5f\xe3?'
tRp613
sg17
g13
(g15
S'b\x96AJ\x92j\xe3?'
tRp614
ssg19
g6
sa(dp615
g3
(dp616
S'k'
I2100
sg5
g6
sg7
g8
sg9
I20
ssg10
(dp617
g12
g13
(g15
S'}oR\xc3\xe0l\xe3?'
tRp618
sg17
g13
(g15
S"\xab'\xbc\x9b\xddo\xe3?"
tRp619
ssg19
g6
sa(dp620
g3
(dp621
S'k'
I2200
sg5
g6
sg7
g8
sg9
I20
ssg10
(dp622
g12
g13
(g15
S'k\xdc#\x9c^n\xe3?'
tRp623
sg17
g13
(g15
S'\xa8\x05sF\xaar\xe3?'
tRp624
ssg19
g6
sa(dp625
g3
(dp626
S'k'
I2300
sg5
g6
sg7
g8
sg9
I20
ssg10
(dp627
g12
g13
(g15
S',U\xf5\xdc"x\xe3?'
tRp628
sg17
g13
(g15
S'E\x84\xee\xb3q|\xe3?'
tRp629
ssg19
g6
sa(dp630
g3
(dp631
S'k'
I2400
sg5
g6
sg7
g8
sg9
I20
ssg10
(dp632
g12
g13
(g15
S'\x0b,\x88\xba\x0eh\xe3?'
tRp633
sg17
g13
(g15
S'\x88vX\x08Uk\xe3?'
tRp634
ssg19
g6
sa(dp635
g3
(dp636
S'k'
I2500
sg5
g6
sg7
g8
sg9
I20
ssg10
(dp637
g12
g13
(g15
S'\xbf\xc4S\x0f&f\xe3?'
tRp638
sg17
g13
(g15
S'\xe5\xe0\x03\x93\xb1h\xe3?'
tRp639
ssg19
g6
sa(dp640
g3
(dp641
S'k'
I2600
sg5
g6
sg7
g8
sg9
I20
ssg10
(dp642
g12
g13
(g15
S'\x8b\xba\xab\xc6\xc4i\xe3?'
tRp643
sg17
g13
(g15
S'\xc4\x13bZ\xbem\xe3?'
tRp644
ssg19
g6
sa(dp645
g3
(dp646
S'k'
I2700
sg5
g6
sg7
g8
sg9
I20
ssg10
(dp647
g12
g13
(g15
S'\x16\x90\x0f\x1apT\xe3?'
tRp648
sg17
g13
(g15
S'p`\xee\x1a\xe1V\xe3?'
tRp649
ssg19
g6
sa(dp650
g3
(dp651
S'k'
I2800
sg5
g6
sg7
g8
sg9
I20
ssg10
(dp652
g12
g13
(g15
S'\xb4\xb1\xf3\x08\xc6g\xe3?'
tRp653
sg17
g13
(g15
S'\x95\xb0?\xf6-l\xe3?'
tRp654
ssg19
g6
sa(dp655
g3
(dp656
S'k'
I2888
sg5
g6
sg7
g8
sg9
I20
ssg10
(dp657
g12
g13
(g15
S'f=\xa1{\xa5k\xe3?'
tRp658
sg17
g13
(g15
S'\\m!\x05\tm\xe3?'
tRp659
ssg19
g6
sa.