(lp1
(dp2
S'setup'
p3
(dp4
S'k'
I1
sS'dataset'
p5
S'tiny'
p6
sS'selectionMethod'
p7
S'MaxSum'
p8
sS'numberOfExperiments'
p9
I200
ssS'results'
p10
(dp11
S'MAE (per experiment)'
p12
cnumpy.core.multiarray
scalar
p13
(cnumpy
dtype
p14
(S'f8'
I0
I1
tRp15
(I3
S'<'
NNNI-1
I-1
I0
tbS'F\xe3\xa5\x9b\xc4 \xa0?'
tRp16
sS'MAE (for all estimates)'
p17
g13
(g15
S'\xb5R\x96!\x8eu\xed?'
tRp18
ssS'dataset'
p19
g6
sa(dp20
g3
(dp21
S'k'
I2
sg5
g6
sg7
g8
sg9
I200
ssg10
(dp22
g12
g13
(g15
S'Z9\xb4\xc8v\xbe\xd9?'
tRp23
sg17
g13
(g15
S'\xcf~j\xbct\x93\xe1?'
tRp24
ssg19
g6
sa(dp25
g3
(dp26
S'k'
I3
sg5
g6
sg7
g8
sg9
I200
ssg10
(dp27
g12
g13
(g15
S'9\xb4\xc8v\xbe\x9f\xd6?'
tRp28
sg17
g13
(g15
S'\x82\xc1\xd0\xfd\xafM\xd9?'
tRp29
ssg19
g6
sa(dp30
g3
(dp31
S'k'
I4
sg5
g6
sg7
g8
sg9
I200
ssg10
(dp32
g12
g13
(g15
S'\x95C\x8bl\xe7\xfb\xd6?'
tRp33
sg17
g13
(g15
S'\xf2\xc3\xb1.n\xa3\xd8?'
tRp34
ssg19
g6
sa(dp35
g3
(dp36
S'k'
I5
sg5
g6
sg7
g8
sg9
I200
ssg10
(dp37
g12
g13
(g15
S'&\xf6\x97\xdd\x93\x87\xd9?'
tRp38
sg17
g13
(g15
S'\x07\xca2\xc4\xb1.\xda?'
tRp39
ssg19
g6
sa(dp40
g3
(dp41
S'k'
I6
sg5
g6
sg7
g8
sg9
I200
ssg10
(dp42
g12
g13
(g15
S'w\xbe\x9f\x1a/\xdd\xd8?'
tRp43
sg17
g13
(g15
S'x\xd5{\x17\xdc\xfc\xd8?'
tRp44
ssg19
g6
sa(dp45
g3
(dp46
S'k'
I7
sg5
g6
sg7
g8
sg9
I200
ssg10
(dp47
g12
g13
(g15
S'\x8aT]\x83}\xb9\xda?'
tRp48
sg17
g13
(g15
S'\x0e\x1a\xcb\xb7\xfdp\xdb?'
tRp49
ssg19
g6
sa(dp50
g3
(dp51
S'k'
I8
sg5
g6
sg7
g8
sg9
I200
ssg10
(dp52
g12
g13
(g15
S'\x1a/\xdd$\x06\x81\xd9?'
tRp53
sg17
g13
(g15
S's\xb6\xd1\x00\xde\x02\xdb?'
tRp54
ssg19
g6
sa(dp55
g3
(dp56
S'k'
I9
sg5
g6
sg7
g8
sg9
I200
ssg10
(dp57
g12
g13
(g15
S'\x9b\xc9\xc2\x88\x1b{\xdb?'
tRp58
sg17
g13
(g15
S'c\x0fV\xc5\x90\xeb\xdc?'
tRp59
ssg19
g6
sa(dp60
g3
(dp61
S'k'
I10
sg5
g6
sg7
g8
sg9
I200
ssg10
(dp62
g12
g13
(g15
S'\x1a\x95\xd4\th"\xdc?'
tRp63
sg17
g13
(g15
S'\xbf\x95\xd4\th"\xdc?'
tRp64
ssg19
g6
sa.