(lp1
(dp2
S'setup'
p3
(dp4
S'k'
I1
sS'dataset'
p5
S'opsahl-powergrid'
p6
sS'numberOfExperiments'
p7
I20
ssS'results'
p8
(dp9
S'MAE (per experiment)'
p10
cnumpy.core.multiarray
scalar
p11
(cnumpy
dtype
p12
(S'f8'
I0
I1
tRp13
(I3
S'<'
NNNI-1
I-1
I0
tbS't\x01\xc7\xa6\xbd\x14\x07@'
tRp14
sS'MAE (for all estimates)'
p15
g11
(g13
S'\x8bj\xe0/\xba\x92\x17@'
tRp16
ssS'dataset'
p17
g6
sa(dp18
g3
(dp19
S'k'
I2
sg5
g6
sg7
I20
ssg8
(dp20
g10
g11
(g13
S'\xee\x1fk\xe9\x02{\x06@'
tRp21
sg15
g11
(g13
S'\xacI3F\xe3\xcc\x10@'
tRp22
ssg17
g6
sa(dp23
g3
(dp24
S'k'
I3
sg5
g6
sg7
I20
ssg8
(dp25
g10
g11
(g13
S'\x19\xdc\x85S\xff\x87\x06@'
tRp26
sg15
g11
(g13
S"'&\xae\xc6\xe2W\x0e@"
tRp27
ssg17
g6
sa(dp28
g3
(dp29
S'k'
I4
sg5
g6
sg7
I20
ssg8
(dp30
g10
g11
(g13
S'_\x1a\x1f\\&\x12\x07@'
tRp31
sg15
g11
(g13
S'\t\x11K\xa2b\x10\x0e@'
tRp32
ssg17
g6
sa(dp33
g3
(dp34
S'k'
I5
sg5
g6
sg7
I20
ssg8
(dp35
g10
g11
(g13
S'9\x04P\xc2U\xc9\x06@'
tRp36
sg15
g11
(g13
S'\x81\x7f\xd0\xba_\x85\r@'
tRp37
ssg17
g6
sa(dp38
g3
(dp39
S'k'
I6
sg5
g6
sg7
I20
ssg8
(dp40
g10
g11
(g13
S'\xb4\xde>\xdc\xfe\xb5\x06@'
tRp41
sg15
g11
(g13
S'\xec\xa21\xfcD1\x0b@'
tRp42
ssg17
g6
sa(dp43
g3
(dp44
S'k'
I7
sg5
g6
sg7
I20
ssg8
(dp45
g10
g11
(g13
S'\x93\x94\x13\n\x82\xa2\x06@'
tRp46
sg15
g11
(g13
S'\x10Y\xdc\x92R\xc2\n@'
tRp47
ssg17
g6
sa(dp48
g3
(dp49
S'k'
I8
sg5
g6
sg7
I20
ssg8
(dp50
g10
g11
(g13
S'\xdf\xfd\xcb\xa2]\xc3\x06@'
tRp51
sg15
g11
(g13
S'T8\xeb\xae\x0f\x15\n@'
tRp52
ssg17
g6
sa(dp53
g3
(dp54
S'k'
I9
sg5
g6
sg7
I20
ssg8
(dp55
g10
g11
(g13
S'\xfd\x1e\xaeSYu\x07@'
tRp56
sg15
g11
(g13
S'n\x13k[Y\xf4\n@'
tRp57
ssg17
g6
sa(dp58
g3
(dp59
S'k'
I10
sg5
g6
sg7
I20
ssg8
(dp60
g10
g11
(g13
S';\xf6\x02\xcfq\xb3\x06@'
tRp61
sg15
g11
(g13
S'\x03\xca\xaa\xf4\xeeW\t@'
tRp62
ssg17
g6
sa(dp63
g3
(dp64
S'k'
I11
sg5
g6
sg7
I20
ssg8
(dp65
g10
g11
(g13
S'\xe7;6\x14\x96\xac\x06@'
tRp66
sg15
g11
(g13
S'\xce;\xd0\xf2N\x96\n@'
tRp67
ssg17
g6
sa(dp68
g3
(dp69
S'k'
I12
sg5
g6
sg7
I20
ssg8
(dp70
g10
g11
(g13
S'\xd0\x92P\xe8\xea\xb9\x06@'
tRp71
sg15
g11
(g13
S'\x8d\x87\xb7\xe1\x85$\t@'
tRp72
ssg17
g6
sa(dp73
g3
(dp74
S'k'
I13
sg5
g6
sg7
I20
ssg8
(dp75
g10
g11
(g13
S'\xefO#\xbe\xb7\x80\x06@'
tRp76
sg15
g11
(g13
S'(\xc4\xac.\xd3l\t@'
tRp77
ssg17
g6
sa(dp78
g3
(dp79
S'k'
I14
sg5
g6
sg7
I20
ssg8
(dp80
g10
g11
(g13
S'\x98\x88G\xe0a\xb8\x06@'
tRp81
sg15
g11
(g13
S'\xcd8\x8f\xbcG\xb4\t@'
tRp82
ssg17
g6
sa(dp83
g3
(dp84
S'k'
I15
sg5
g6
sg7
I20
ssg8
(dp85
g10
g11
(g13
S'\xacG^4\xfd\xe8\x06@'
tRp86
sg15
g11
(g13
S'\x85\xcf\xe3\x06h\xf2\x08@'
tRp87
ssg17
g6
sa(dp88
g3
(dp89
S'k'
I16
sg5
g6
sg7
I20
ssg8
(dp90
g10
g11
(g13
S'\xbb\x9c`\x04W\n\x07@'
tRp91
sg15
g11
(g13
S"\x03E\xbb\x88\x93'\t@"
tRp92
ssg17
g6
sa(dp93
g3
(dp94
S'k'
I17
sg5
g6
sg7
I20
ssg8
(dp95
g10
g11
(g13
S'\xa2z\xfd\xa2\xe6\x84\x06@'
tRp96
sg15
g11
(g13
S'\xaa\xe8D\xb9\xed\xa6\x08@'
tRp97
ssg17
g6
sa(dp98
g3
(dp99
S'k'
I18
sg5
g6
sg7
I20
ssg8
(dp100
g10
g11
(g13
S'\x14\xe5C$\xea\xcb\x06@'
tRp101
sg15
g11
(g13
S'\xb2\xc0\xfa\xa3RH\x08@'
tRp102
ssg17
g6
sa(dp103
g3
(dp104
S'k'
I19
sg5
g6
sg7
I20
ssg8
(dp105
g10
g11
(g13
S'\x83\xdd\xf8h@\xc4\x06@'
tRp106
sg15
g11
(g13
S'\xc8o\xac\x84`5\x08@'
tRp107
ssg17
g6
sa(dp108
g3
(dp109
S'k'
I20
sg5
g6
sg7
I20
ssg8
(dp110
g10
g11
(g13
S'\xabM\xe0.\xe7\xca\x06@'
tRp111
sg15
g11
(g13
S'o\x96\x9c\xf2\x99s\x08@'
tRp112
ssg17
g6
sa(dp113
g3
(dp114
S'k'
I21
sg5
g6
sg7
I20
ssg8
(dp115
g10
g11
(g13
S'[\x92\xdb\xcaH\xb0\x07@'
tRp116
sg15
g11
(g13
S'\xef\xc6\xf8Ss\xbf\x08@'
tRp117
ssg17
g6
sa(dp118
g3
(dp119
S'k'
I22
sg5
g6
sg7
I20
ssg8
(dp120
g10
g11
(g13
S'\xc3\xaeb\xd9\xeb\xbd\x06@'
tRp121
sg15
g11
(g13
S'm\x02;J\xf4A\x08@'
tRp122
ssg17
g6
sa(dp123
g3
(dp124
S'k'
I23
sg5
g6
sg7
I20
ssg8
(dp125
g10
g11
(g13
S'\x19\x99\x17=\xce\xe6\x06@'
tRp126
sg15
g11
(g13
S'y\xe7c\xb83Q\x08@'
tRp127
ssg17
g6
sa(dp128
g3
(dp129
S'k'
I24
sg5
g6
sg7
I20
ssg8
(dp130
g10
g11
(g13
S'\xdc\xdb\x174\xd7\xd0\x06@'
tRp131
sg15
g11
(g13
S'\x91\xd6\xe7\xc4?\xca\x07@'
tRp132
ssg17
g6
sa(dp133
g3
(dp134
S'k'
I25
sg5
g6
sg7
I20
ssg8
(dp135
g10
g11
(g13
S'\xeb\x03\xee\xf7\xe6H\x07@'
tRp136
sg15
g11
(g13
S'\xd0?A\xda\x08\xb1\x08@'
tRp137
ssg17
g6
sa(dp138
g3
(dp139
S'k'
I26
sg5
g6
sg7
I20
ssg8
(dp140
g10
g11
(g13
S'\x04\x10\xcf/.\xd1\x06@'
tRp141
sg15
g11
(g13
S".\x03\xc3`\x11'\x08@"
tRp142
ssg17
g6
sa(dp143
g3
(dp144
S'k'
I27
sg5
g6
sg7
I20
ssg8
(dp145
g10
g11
(g13
S'?\xd9\xba\t\x9bn\x06@'
tRp146
sg15
g11
(g13
S'H4\xc8\x18\xb5\xbf\x07@'
tRp147
ssg17
g6
sa(dp148
g3
(dp149
S'k'
I28
sg5
g6
sg7
I20
ssg8
(dp150
g10
g11
(g13
S'\tu\xda\xb7\xe6\xed\x06@'
tRp151
sg15
g11
(g13
S'\xeaS}6\xaf\xd4\x07@'
tRp152
ssg17
g6
sa(dp153
g3
(dp154
S'k'
I29
sg5
g6
sg7
I20
ssg8
(dp155
g10
g11
(g13
S'\x19\x01"o\x7f\xd1\x06@'
tRp156
sg15
g11
(g13
S'\xac"\xf9\xa5Z\xdc\x07@'
tRp157
ssg17
g6
sa(dp158
g3
(dp159
S'k'
I30
sg5
g6
sg7
I20
ssg8
(dp160
g10
g11
(g13
S'6\x8e\x9f\xf6\x93\x89\x06@'
tRp161
sg15
g11
(g13
S'}\xe1W}\x83\xa2\x07@'
tRp162
ssg17
g6
sa(dp163
g3
(dp164
S'k'
I31
sg5
g6
sg7
I20
ssg8
(dp165
g10
g11
(g13
S'\x01\xea\x98\xd2v\xc0\x06@'
tRp166
sg15
g11
(g13
S'\xdb\x8a\xc0\xd4\xf1\x86\x07@'
tRp167
ssg17
g6
sa(dp168
g3
(dp169
S'k'
I32
sg5
g6
sg7
I20
ssg8
(dp170
g10
g11
(g13
S']N\x91\x16\xd5n\x06@'
tRp171
sg15
g11
(g13
S'\xa1d\x9a\xd7S$\x07@'
tRp172
ssg17
g6
sa(dp173
g3
(dp174
S'k'
I33
sg5
g6
sg7
I20
ssg8
(dp175
g10
g11
(g13
S'AT\xecZ\xe1\xfa\x06@'
tRp176
sg15
g11
(g13
S'\x13\xb4\x90,\x92\xd4\x07@'
tRp177
ssg17
g6
sa(dp178
g3
(dp179
S'k'
I34
sg5
g6
sg7
I20
ssg8
(dp180
g10
g11
(g13
S'\x89;p\x9e{\xb3\x06@'
tRp181
sg15
g11
(g13
S'\xc8\x80v\x01\x0f\xd7\x07@'
tRp182
ssg17
g6
sa(dp183
g3
(dp184
S'k'
I35
sg5
g6
sg7
I20
ssg8
(dp185
g10
g11
(g13
S'\xef\xb2`\x93v\xcf\x06@'
tRp186
sg15
g11
(g13
S'I\x9dv\xac\x92\xf8\x07@'
tRp187
ssg17
g6
sa(dp188
g3
(dp189
S'k'
I36
sg5
g6
sg7
I20
ssg8
(dp190
g10
g11
(g13
S'"o\xe3\xb2|\xbf\x06@'
tRp191
sg15
g11
(g13
S'!\xf3 \xa6\xb7\xb3\x07@'
tRp192
ssg17
g6
sa(dp193
g3
(dp194
S'k'
I37
sg5
g6
sg7
I20
ssg8
(dp195
g10
g11
(g13
S'z\xb0\x1c\xd3\xc1u\x06@'
tRp196
sg15
g11
(g13
S'\xa5l\xc4\x95\xe9O\x07@'
tRp197
ssg17
g6
sa(dp198
g3
(dp199
S'k'
I38
sg5
g6
sg7
I20
ssg8
(dp200
g10
g11
(g13
S'\xc8\xc7M\xaa\x83\x8b\x06@'
tRp201
sg15
g11
(g13
S'\xf5Tz\xc4\\@\x07@'
tRp202
ssg17
g6
sa(dp203
g3
(dp204
S'k'
I39
sg5
g6
sg7
I20
ssg8
(dp205
g10
g11
(g13
S'\xc9o\x84E\x10\xaa\x06@'
tRp206
sg15
g11
(g13
S'\xc2\xccQV\xab\xa8\x07@'
tRp207
ssg17
g6
sa(dp208
g3
(dp209
S'k'
I40
sg5
g6
sg7
I20
ssg8
(dp210
g10
g11
(g13
S'\x0e\xb1\xc6gh\xd4\x06@'
tRp211
sg15
g11
(g13
S'\x9c\xa6\xc1=\xebr\x07@'
tRp212
ssg17
g6
sa(dp213
g3
(dp214
S'k'
I41
sg5
g6
sg7
I20
ssg8
(dp215
g10
g11
(g13
S'\xf4F\xc3\x10\x16\x9d\x06@'
tRp216
sg15
g11
(g13
S'\x8bl\xcb\xc0\xeeh\x07@'
tRp217
ssg17
g6
sa(dp218
g3
(dp219
S'k'
I42
sg5
g6
sg7
I20
ssg8
(dp220
g10
g11
(g13
S'F@\x94\xcc\xfc\xa5\x06@'
tRp221
sg15
g11
(g13
S'\xe8\xf9\x17c"`\x07@'
tRp222
ssg17
g6
sa(dp223
g3
(dp224
S'k'
I43
sg5
g6
sg7
I20
ssg8
(dp225
g10
g11
(g13
S'6~\x01\xb0\xee\xb3\x06@'
tRp226
sg15
g11
(g13
S'\x82\x80\xaf\xc6\xa5c\x07@'
tRp227
ssg17
g6
sa(dp228
g3
(dp229
S'k'
I44
sg5
g6
sg7
I20
ssg8
(dp230
g10
g11
(g13
S'\xe1\xb5:K\xf8\xa1\x06@'
tRp231
sg15
g11
(g13
S'\xf7\xbb\xfb\xd8\xc5m\x07@'
tRp232
ssg17
g6
sa(dp233
g3
(dp234
S'k'
I45
sg5
g6
sg7
I20
ssg8
(dp235
g10
g11
(g13
S'\x1f!_\x99\xb1\xd0\x06@'
tRp236
sg15
g11
(g13
S"bp'w\xc5\x88\x07@"
tRp237
ssg17
g6
sa(dp238
g3
(dp239
S'k'
I46
sg5
g6
sg7
I20
ssg8
(dp240
g10
g11
(g13
S'2\xbfcS\n\xaf\x06@'
tRp241
sg15
g11
(g13
S'\xf7w\x9c\xa2\xc6\xc7\x07@'
tRp242
ssg17
g6
sa(dp243
g3
(dp244
S'k'
I47
sg5
g6
sg7
I20
ssg8
(dp245
g10
g11
(g13
S'\x93Z\xdc;j\xc4\x06@'
tRp246
sg15
g11
(g13
S'P\xd4\xc5\xbc\xd6s\x07@'
tRp247
ssg17
g6
sa(dp248
g3
(dp249
S'k'
I48
sg5
g6
sg7
I20
ssg8
(dp250
g10
g11
(g13
S'\xdd\xe7\x14\x83\xf5\xae\x06@'
tRp251
sg15
g11
(g13
S'e\x1a\x87{\xaaG\x07@'
tRp252
ssg17
g6
sa(dp253
g3
(dp254
S'k'
I49
sg5
g6
sg7
I20
ssg8
(dp255
g10
g11
(g13
S'\x90\xc7\xc7W\x03\xbc\x06@'
tRp256
sg15
g11
(g13
S'\xc1\x15\xe2D\x07r\x07@'
tRp257
ssg17
g6
sa(dp258
g3
(dp259
S'k'
I50
sg5
g6
sg7
I20
ssg8
(dp260
g10
g11
(g13
S'\xbc\\=\x85\xfc\xb2\x06@'
tRp261
sg15
g11
(g13
S'&\x02\x1cG:J\x07@'
tRp262
ssg17
g6
sa(dp263
g3
(dp264
S'k'
I51
sg5
g6
sg7
I20
ssg8
(dp265
g10
g11
(g13
S' l\x1eD-\xe9\x06@'
tRp266
sg15
g11
(g13
S'\x1d\xf7\xad\\\xfbo\x07@'
tRp267
ssg17
g6
sa(dp268
g3
(dp269
S'k'
I52
sg5
g6
sg7
I20
ssg8
(dp270
g10
g11
(g13
S'\x9e\xb0\xc4\xe2\xe5\xfa\x06@'
tRp271
sg15
g11
(g13
S'\xd4\x87\xa8h\xebj\x07@'
tRp272
ssg17
g6
sa(dp273
g3
(dp274
S'k'
I53
sg5
g6
sg7
I20
ssg8
(dp275
g10
g11
(g13
S'%\x99\x94\xf6\x07\xa9\x06@'
tRp276
sg15
g11
(g13
S'7\xc3D\x80\xbcY\x07@'
tRp277
ssg17
g6
sa(dp278
g3
(dp279
S'k'
I54
sg5
g6
sg7
I20
ssg8
(dp280
g10
g11
(g13
S'\x05\x18\xf2K\x94\x99\x06@'
tRp281
sg15
g11
(g13
S'K\xd1<\x97\xe3@\x07@'
tRp282
ssg17
g6
sa(dp283
g3
(dp284
S'k'
I55
sg5
g6
sg7
I20
ssg8
(dp285
g10
g11
(g13
S'\xbc\x85\xf9\xe3\x1f\xdc\x06@'
tRp286
sg15
g11
(g13
S'\xe6J+\xe6\x08M\x07@'
tRp287
ssg17
g6
sa(dp288
g3
(dp289
S'k'
I56
sg5
g6
sg7
I20
ssg8
(dp290
g10
g11
(g13
S'_,\x19\x01\x82\xdb\x06@'
tRp291
sg15
g11
(g13
S'\x1f\xb2$\xc4\xb2m\x07@'
tRp292
ssg17
g6
sa(dp293
g3
(dp294
S'k'
I57
sg5
g6
sg7
I20
ssg8
(dp295
g10
g11
(g13
S')|\xba\xb5\x88\xa5\x06@'
tRp296
sg15
g11
(g13
S"\xa6\xe9\x1f'g;\x07@"
tRp297
ssg17
g6
sa(dp298
g3
(dp299
S'k'
I58
sg5
g6
sg7
I20
ssg8
(dp300
g10
g11
(g13
S'\t\xfa\xf8\x1d\x01\xe7\x06@'
tRp301
sg15
g11
(g13
S'Z\x07\x87\x9b\x14j\x07@'
tRp302
ssg17
g6
sa(dp303
g3
(dp304
S'k'
I59
sg5
g6
sg7
I20
ssg8
(dp305
g10
g11
(g13
S"w\xc1\x9e'6\xa3\x06@"
tRp306
sg15
g11
(g13
S'\x1f\xe4\xc2+\xd7+\x07@'
tRp307
ssg17
g6
sa(dp308
g3
(dp309
S'k'
I60
sg5
g6
sg7
I20
ssg8
(dp310
g10
g11
(g13
S'\t\xc7\xc7\xdbq\xaf\x06@'
tRp311
sg15
g11
(g13
S'\x1e`o\xa0\x9fl\x07@'
tRp312
ssg17
g6
sa(dp313
g3
(dp314
S'k'
I61
sg5
g6
sg7
I20
ssg8
(dp315
g10
g11
(g13
S'\x079\xf54\xda\x98\x06@'
tRp316
sg15
g11
(g13
S'\x99\xd7~\x1e\x8c\x0f\x07@'
tRp317
ssg17
g6
sa(dp318
g3
(dp319
S'k'
I62
sg5
g6
sg7
I20
ssg8
(dp320
g10
g11
(g13
S'>\xd1\xc8\xa5\xa6\x84\x06@'
tRp321
sg15
g11
(g13
S'\xef\xe5\xc2\x87\xa8\n\x07@'
tRp322
ssg17
g6
sa(dp323
g3
(dp324
S'k'
I63
sg5
g6
sg7
I20
ssg8
(dp325
g10
g11
(g13
S'\x17\x82\xe1\x11y\x9c\x06@'
tRp326
sg15
g11
(g13
S'\xf5\xcar"\xc2\x0b\x07@'
tRp327
ssg17
g6
sa(dp328
g3
(dp329
S'k'
I64
sg5
g6
sg7
I20
ssg8
(dp330
g10
g11
(g13
S'\nU_\xa0J\xb1\x06@'
tRp331
sg15
g11
(g13
S'uAG{\x07\x15\x07@'
tRp332
ssg17
g6
sa(dp333
g3
(dp334
S'k'
I65
sg5
g6
sg7
I20
ssg8
(dp335
g10
g11
(g13
S'\xe2\xaa\x8e\xaeM\xb9\x06@'
tRp336
sg15
g11
(g13
S'\xac\x1e?^\x1ac\x07@'
tRp337
ssg17
g6
sa(dp338
g3
(dp339
S'k'
I66
sg5
g6
sg7
I20
ssg8
(dp340
g10
g11
(g13
S'\x1eye\x99\xed\xad\x06@'
tRp341
sg15
g11
(g13
S'\x91+\t\x01"\x18\x07@'
tRp342
ssg17
g6
sa(dp343
g3
(dp344
S'k'
I67
sg5
g6
sg7
I20
ssg8
(dp345
g10
g11
(g13
S'ly\xd2\xbc\x14\xce\x06@'
tRp346
sg15
g11
(g13
S'\xb3\x15\xae\x80\xe3B\x07@'
tRp347
ssg17
g6
sa(dp348
g3
(dp349
S'k'
I68
sg5
g6
sg7
I20
ssg8
(dp350
g10
g11
(g13
S'\xfd\xe3a\xa1\xae\xdf\x06@'
tRp351
sg15
g11
(g13
S'\xe3\x01\x97\xc2\x10C\x07@'
tRp352
ssg17
g6
sa(dp353
g3
(dp354
S'k'
I69
sg5
g6
sg7
I20
ssg8
(dp355
g10
g11
(g13
S'd\xb1\x03\xc6\xed\xde\x06@'
tRp356
sg15
g11
(g13
S'\xb3\x9f\xa4\xd1\x82K\x07@'
tRp357
ssg17
g6
sa(dp358
g3
(dp359
S'k'
I70
sg5
g6
sg7
I20
ssg8
(dp360
g10
g11
(g13
S')O\x13\xec\x0e\xa2\x06@'
tRp361
sg15
g11
(g13
S'J\xa6\xe5mR\x07\x07@'
tRp362
ssg17
g6
sa(dp363
g3
(dp364
S'k'
I71
sg5
g6
sg7
I20
ssg8
(dp365
g10
g11
(g13
S'\x96\x9e\xbb-1\xff\x06@'
tRp366
sg15
g11
(g13
S'\x92\x8fv\x02\xc5W\x07@'
tRp367
ssg17
g6
sa(dp368
g3
(dp369
S'k'
I72
sg5
g6
sg7
I20
ssg8
(dp370
g10
g11
(g13
S'\xe9Ft9\xc0\xa0\x06@'
tRp371
sg15
g11
(g13
S'q\xf5\x8d\xb8\x02\x19\x07@'
tRp372
ssg17
g6
sa(dp373
g3
(dp374
S'k'
I73
sg5
g6
sg7
I20
ssg8
(dp375
g10
g11
(g13
S'5\x9c\x9c\x1b\x8a\xe4\x06@'
tRp376
sg15
g11
(g13
S'\xa6\x83\xf3\xa4HI\x07@'
tRp377
ssg17
g6
sa(dp378
g3
(dp379
S'k'
I74
sg5
g6
sg7
I20
ssg8
(dp380
g10
g11
(g13
S'\xd0H\xdf\x0fx\xa8\x06@'
tRp381
sg15
g11
(g13
S'\x9c\xb4\xb7ID\x1a\x07@'
tRp382
ssg17
g6
sa(dp383
g3
(dp384
S'k'
I75
sg5
g6
sg7
I20
ssg8
(dp385
g10
g11
(g13
S'\xfa\xa3\x0c\x81\xa5\xad\x06@'
tRp386
sg15
g11
(g13
S'\x95\xe4i\xfd\x1f]\x07@'
tRp387
ssg17
g6
sa(dp388
g3
(dp389
S'k'
I76
sg5
g6
sg7
I20
ssg8
(dp390
g10
g11
(g13
S'9u\xd2>\xa1\xc2\x06@'
tRp391
sg15
g11
(g13
S'\xe5\x0b\x8c\xa4\x053\x07@'
tRp392
ssg17
g6
sa(dp393
g3
(dp394
S'k'
I77
sg5
g6
sg7
I20
ssg8
(dp395
g10
g11
(g13
S'\xbe^\x0e4J\x93\x06@'
tRp396
sg15
g11
(g13
S'\xe6uQ\xbf \xf0\x06@'
tRp397
ssg17
g6
sa(dp398
g3
(dp399
S'k'
I78
sg5
g6
sg7
I20
ssg8
(dp400
g10
g11
(g13
S'\r\x97\x7f\xc5\xba\xb9\x06@'
tRp401
sg15
g11
(g13
S'dT\xa6!\x97\x1d\x07@'
tRp402
ssg17
g6
sa(dp403
g3
(dp404
S'k'
I79
sg5
g6
sg7
I20
ssg8
(dp405
g10
g11
(g13
S'<\xcf~J\xf9\xac\x06@'
tRp406
sg15
g11
(g13
S'\xb5\xdd\xfd\xb4\xf7U\x07@'
tRp407
ssg17
g6
sa(dp408
g3
(dp409
S'k'
I80
sg5
g6
sg7
I20
ssg8
(dp410
g10
g11
(g13
S'>6L\xea\x91\xaf\x06@'
tRp411
sg15
g11
(g13
S'E\xfd\xe9\xee\xcb\x05\x07@'
tRp412
ssg17
g6
sa(dp413
g3
(dp414
S'k'
I81
sg5
g6
sg7
I20
ssg8
(dp415
g10
g11
(g13
S'Ozr\xfat\x8c\x06@'
tRp416
sg15
g11
(g13
S'\xe6:\xa3\xb0*\xf3\x06@'
tRp417
ssg17
g6
sa(dp418
g3
(dp419
S'k'
I82
sg5
g6
sg7
I20
ssg8
(dp420
g10
g11
(g13
S'O\xb2\x14K\xcc\xd7\x06@'
tRp421
sg15
g11
(g13
S'\x18\xd3\xfe= 5\x07@'
tRp422
ssg17
g6
sa(dp423
g3
(dp424
S'k'
I83
sg5
g6
sg7
I20
ssg8
(dp425
g10
g11
(g13
S"'\\\xc4\x05\xef\xe1\x06@"
tRp426
sg15
g11
(g13
S'uD\x8c\xb31J\x07@'
tRp427
ssg17
g6
sa(dp428
g3
(dp429
S'k'
I84
sg5
g6
sg7
I20
ssg8
(dp430
g10
g11
(g13
S'N\xf0\x00\xe7a\xd0\x06@'
tRp431
sg15
g11
(g13
S'\xcf\xe3\x15\x94\x8c\x1e\x07@'
tRp432
ssg17
g6
sa(dp433
g3
(dp434
S'k'
I85
sg5
g6
sg7
I20
ssg8
(dp435
g10
g11
(g13
S'\trQ\x7f|\xb3\x06@'
tRp436
sg15
g11
(g13
S'\x98\xd5D\x81\xdc\x01\x07@'
tRp437
ssg17
g6
sa(dp438
g3
(dp439
S'k'
I86
sg5
g6
sg7
I20
ssg8
(dp440
g10
g11
(g13
S'\x95\xb3\xf5V\xae\xa1\x06@'
tRp441
sg15
g11
(g13
S'\x1b\xae(\xde\xd6\xf5\x06@'
tRp442
ssg17
g6
sa(dp443
g3
(dp444
S'k'
I87
sg5
g6
sg7
I20
ssg8
(dp445
g10
g11
(g13
S'\xd4z\xf6\xdc\xd0\xba\x06@'
tRp446
sg15
g11
(g13
S'\xd7\n,()\x1d\x07@'
tRp447
ssg17
g6
sa(dp448
g3
(dp449
S'k'
I88
sg5
g6
sg7
I20
ssg8
(dp450
g10
g11
(g13
S'i\xb3\x0b\x18\xe1\xa8\x06@'
tRp451
sg15
g11
(g13
S'\xe0p\x01\xf2\xe4\x0b\x07@'
tRp452
ssg17
g6
sa(dp453
g3
(dp454
S'k'
I89
sg5
g6
sg7
I20
ssg8
(dp455
g10
g11
(g13
S'in\xcbW\xb3\xa3\x06@'
tRp456
sg15
g11
(g13
S'{)\xdc\\M\x03\x07@'
tRp457
ssg17
g6
sa(dp458
g3
(dp459
S'k'
I90
sg5
g6
sg7
I20
ssg8
(dp460
g10
g11
(g13
S'\x91&\xaf\xdbX\xc8\x06@'
tRp461
sg15
g11
(g13
S'$\xf2\r\xbe\xef\x16\x07@'
tRp462
ssg17
g6
sa(dp463
g3
(dp464
S'k'
I91
sg5
g6
sg7
I20
ssg8
(dp465
g10
g11
(g13
S'@}\x15m\x8d\xdf\x06@'
tRp466
sg15
g11
(g13
S'hv%\x02\xbf1\x07@'
tRp467
ssg17
g6
sa(dp468
g3
(dp469
S'k'
I92
sg5
g6
sg7
I20
ssg8
(dp470
g10
g11
(g13
S'\x88\x1e\x8e\x85\x06\xf3\x06@'
tRp471
sg15
g11
(g13
S'\x00\x07\x00\xd5YT\x07@'
tRp472
ssg17
g6
sa(dp473
g3
(dp474
S'k'
I93
sg5
g6
sg7
I20
ssg8
(dp475
g10
g11
(g13
S'\xee\x9d\xe7o]\xc2\x06@'
tRp476
sg15
g11
(g13
S'\xa2\xedb0\xf1\x11\x07@'
tRp477
ssg17
g6
sa(dp478
g3
(dp479
S'k'
I94
sg5
g6
sg7
I20
ssg8
(dp480
g10
g11
(g13
S'\xf4\xfe\xea\xfe\xb2\xd5\x06@'
tRp481
sg15
g11
(g13
S'\xfdD\xee\xe7\xad\x1a\x07@'
tRp482
ssg17
g6
sa(dp483
g3
(dp484
S'k'
I95
sg5
g6
sg7
I20
ssg8
(dp485
g10
g11
(g13
S'\xd8\x93\xdf\xc7\x85\xb9\x06@'
tRp486
sg15
g11
(g13
S'\x06\xd1+\x96=\x03\x07@'
tRp487
ssg17
g6
sa(dp488
g3
(dp489
S'k'
I96
sg5
g6
sg7
I20
ssg8
(dp490
g10
g11
(g13
S'\xcd\xb9\x97\nZ\xac\x06@'
tRp491
sg15
g11
(g13
S'\xc8\x83\xaf\xa6E\x03\x07@'
tRp492
ssg17
g6
sa(dp493
g3
(dp494
S'k'
I97
sg5
g6
sg7
I20
ssg8
(dp495
g10
g11
(g13
S'\xbe\x90\x85\xa7\xc9\xcc\x06@'
tRp496
sg15
g11
(g13
S'(\x06\x92\xdf\x81$\x07@'
tRp497
ssg17
g6
sa(dp498
g3
(dp499
S'k'
I98
sg5
g6
sg7
I20
ssg8
(dp500
g10
g11
(g13
S'7\xdf\xa4\x9f\xc6\xef\x06@'
tRp501
sg15
g11
(g13
S'\xda/5uQ8\x07@'
tRp502
ssg17
g6
sa(dp503
g3
(dp504
S'k'
I99
sg5
g6
sg7
I20
ssg8
(dp505
g10
g11
(g13
S'\x96\xaa\x07\x13d\xc6\x06@'
tRp506
sg15
g11
(g13
S'\x9a\xf1#\xec\xd8\x13\x07@'
tRp507
ssg17
g6
sa(dp508
g3
(dp509
S'k'
I100
sg5
g6
sg7
I20
ssg8
(dp510
g10
g11
(g13
S'\xa0h\xb5tK\xac\x06@'
tRp511
sg15
g11
(g13
S'2\xce\xa8_\xcd\xe9\x06@'
tRp512
ssg17
g6
sa(dp513
g3
(dp514
S'k'
I100
sg5
g6
sg7
I20
ssg8
(dp515
g10
g11
(g13
S'CM\xf3\xdfu\xde\x06@'
tRp516
sg15
g11
(g13
S'<\x8e+\x8e}\x1d\x07@'
tRp517
ssg17
g6
sa(dp518
g3
(dp519
S'k'
I200
sg5
g6
sg7
I20
ssg8
(dp520
g10
g11
(g13
S'\x18\x924AF\xa0\x06@'
tRp521
sg15
g11
(g13
S'\xef~Vc\xbc\xc2\x06@'
tRp522
ssg17
g6
sa(dp523
g3
(dp524
S'k'
I300
sg5
g6
sg7
I20
ssg8
(dp525
g10
g11
(g13
S'\x90\x91\xb1\xf9E\xa5\x06@'
tRp526
sg15
g11
(g13
S'\x05n\xafr\x08\xbe\x06@'
tRp527
ssg17
g6
sa(dp528
g3
(dp529
S'k'
I400
sg5
g6
sg7
I20
ssg8
(dp530
g10
g11
(g13
S'\xe6\x1a\x9b\x0cf\xc3\x06@'
tRp531
sg15
g11
(g13
S'\xb1J\xc75\xc5\xd3\x06@'
tRp532
ssg17
g6
sa(dp533
g3
(dp534
S'k'
I500
sg5
g6
sg7
I20
ssg8
(dp535
g10
g11
(g13
S'r\xe1\x08\x9aH\xc3\x06@'
tRp536
sg15
g11
(g13
S'5!@s\xa7\xd6\x06@'
tRp537
ssg17
g6
sa(dp538
g3
(dp539
S'k'
I600
sg5
g6
sg7
I20
ssg8
(dp540
g10
g11
(g13
S'7\xb7\x15\x9a\xfe\xaa\x06@'
tRp541
sg15
g11
(g13
S'8Y\xad\xbd\x05\xbb\x06@'
tRp542
ssg17
g6
sa(dp543
g3
(dp544
S'k'
I700
sg5
g6
sg7
I20
ssg8
(dp545
g10
g11
(g13
S'v\x0f\x1f\xf9\xa8\xb8\x06@'
tRp546
sg15
g11
(g13
S'^\x8d\x04du\xc6\x06@'
tRp547
ssg17
g6
sa(dp548
g3
(dp549
S'k'
I800
sg5
g6
sg7
I20
ssg8
(dp550
g10
g11
(g13
S'\x9c\xdf`\xdd\xfd\xc0\x06@'
tRp551
sg15
g11
(g13
S'\xd7\xcc\x9f\x98\xa0\xcb\x06@'
tRp552
ssg17
g6
sa(dp553
g3
(dp554
S'k'
I900
sg5
g6
sg7
I20
ssg8
(dp555
g10
g11
(g13
S'\x9f\xca\x0c\xf6\xe2\xc8\x06@'
tRp556
sg15
g11
(g13
S'kM\xc1!\x1c\xd1\x06@'
tRp557
ssg17
g6
sa(dp558
g3
(dp559
S'k'
I1000
sg5
g6
sg7
I20
ssg8
(dp560
g10
g11
(g13
S'\x03\xcc\xc8\xd5\xaa\xb8\x06@'
tRp561
sg15
g11
(g13
S'\xe8\xaceQs\xc2\x06@'
tRp562
ssg17
g6
sa(dp563
g3
(dp564
S'k'
I1100
sg5
g6
sg7
I20
ssg8
(dp565
g10
g11
(g13
S'\xfba\xb2\xfa\xa5\xc6\x06@'
tRp566
sg15
g11
(g13
S'H~\xcb\x07\xed\xcd\x06@'
tRp567
ssg17
g6
sa(dp568
g3
(dp569
S'k'
I1200
sg5
g6
sg7
I20
ssg8
(dp570
g10
g11
(g13
S'\xe7^\xbb|\x92\xb7\x06@'
tRp571
sg15
g11
(g13
S'\xa3\xa0$\x8c\xc8\xc3\x06@'
tRp572
ssg17
g6
sa(dp573
g3
(dp574
S'k'
I1300
sg5
g6
sg7
I20
ssg8
(dp575
g10
g11
(g13
S'\xb1+\xef\xa2|\xac\x06@'
tRp576
sg15
g11
(g13
S'\xc8}\xe0\x83\xbf\xb4\x06@'
tRp577
ssg17
g6
sa(dp578
g3
(dp579
S'k'
I1400
sg5
g6
sg7
I20
ssg8
(dp580
g10
g11
(g13
S'\x8b#\x03z\x86\xc0\x06@'
tRp581
sg15
g11
(g13
S'W\xc6@Eh\xc7\x06@'
tRp582
ssg17
g6
sa(dp583
g3
(dp584
S'k'
I1500
sg5
g6
sg7
I20
ssg8
(dp585
g10
g11
(g13
S'\x10?\x83\xda\xbe\xb3\x06@'
tRp586
sg15
g11
(g13
S'\x8a\xa4f^*\xbb\x06@'
tRp587
ssg17
g6
sa(dp588
g3
(dp589
S'k'
I1600
sg5
g6
sg7
I20
ssg8
(dp590
g10
g11
(g13
S'\xaf\xf0\x80}\x99\xb3\x06@'
tRp591
sg15
g11
(g13
S'0\x809-\xca\xb9\x06@'
tRp592
ssg17
g6
sa(dp593
g3
(dp594
S'k'
I1700
sg5
g6
sg7
I20
ssg8
(dp595
g10
g11
(g13
S'\xac\x13;\x88|\xc0\x06@'
tRp596
sg15
g11
(g13
S'\xc2wM1\x98\xc5\x06@'
tRp597
ssg17
g6
sa(dp598
g3
(dp599
S'k'
I1800
sg5
g6
sg7
I20
ssg8
(dp600
g10
g11
(g13
S'GB\xec\xa6\xb7\xc2\x06@'
tRp601
sg15
g11
(g13
S'\x11\xecW\x9cB\xc9\x06@'
tRp602
ssg17
g6
sa(dp603
g3
(dp604
S'k'
I1900
sg5
g6
sg7
I20
ssg8
(dp605
g10
g11
(g13
S'RM4]\xd6\xb3\x06@'
tRp606
sg15
g11
(g13
S'\xb4I\x02\x9b\xaf\xb8\x06@'
tRp607
ssg17
g6
sa(dp608
g3
(dp609
S'k'
I2000
sg5
g6
sg7
I20
ssg8
(dp610
g10
g11
(g13
S'\xb6WA\x1dZ\xc2\x06@'
tRp611
sg15
g11
(g13
S'\xe0|\xbb\xc7;\xc9\x06@'
tRp612
ssg17
g6
sa(dp613
g3
(dp614
S'k'
I2100
sg5
g6
sg7
I20
ssg8
(dp615
g10
g11
(g13
S'\xd3\xc6\x06\x17y\xb8\x06@'
tRp616
sg15
g11
(g13
S'\x94O\xba\xe7K\xbe\x06@'
tRp617
ssg17
g6
sa(dp618
g3
(dp619
S'k'
I2200
sg5
g6
sg7
I20
ssg8
(dp620
g10
g11
(g13
S'\x12\x1a\xd9\x1fw\xac\x06@'
tRp621
sg15
g11
(g13
S'G\x102\xc9+\xb3\x06@'
tRp622
ssg17
g6
sa(dp623
g3
(dp624
S'k'
I2300
sg5
g6
sg7
I20
ssg8
(dp625
g10
g11
(g13
S'\xeb\x90\xb3Ol\xb5\x06@'
tRp626
sg15
g11
(g13
S'8\xce\x83\x19\x84\xb9\x06@'
tRp627
ssg17
g6
sa(dp628
g3
(dp629
S'k'
I2400
sg5
g6
sg7
I20
ssg8
(dp630
g10
g11
(g13
S'\x00e\xd4\x84\x00\xc0\x06@'
tRp631
sg15
g11
(g13
S'\x1bn\xe1\xa1\xd7\xc4\x06@'
tRp632
ssg17
g6
sa(dp633
g3
(dp634
S'k'
I2500
sg5
g6
sg7
I20
ssg8
(dp635
g10
g11
(g13
S'\x0eo\xa5\xcd#\xb7\x06@'
tRp636
sg15
g11
(g13
S'|%\xf8\xfa\x94\xbb\x06@'
tRp637
ssg17
g6
sa(dp638
g3
(dp639
S'k'
I2600
sg5
g6
sg7
I20
ssg8
(dp640
g10
g11
(g13
S'#\xc8\x84\xfc\t\xbd\x06@'
tRp641
sg15
g11
(g13
S'\xc2e\x96\x8b\x9b\xc0\x06@'
tRp642
ssg17
g6
sa(dp643
g3
(dp644
S'k'
I2700
sg5
g6
sg7
I20
ssg8
(dp645
g10
g11
(g13
S'\x91~J\xe2\x16\xb1\x06@'
tRp646
sg15
g11
(g13
S'(PC4\xd3\xb4\x06@'
tRp647
ssg17
g6
sa(dp648
g3
(dp649
S'k'
I2800
sg5
g6
sg7
I20
ssg8
(dp650
g10
g11
(g13
S'\xb1{\xa1\xdb\x04\xbe\x06@'
tRp651
sg15
g11
(g13
S'T\x01\xca\xb9\n\xc2\x06@'
tRp652
ssg17
g6
sa(dp653
g3
(dp654
S'k'
I2900
sg5
g6
sg7
I20
ssg8
(dp655
g10
g11
(g13
S'\xfd\xe5X\xcc\x9b\xb6\x06@'
tRp656
sg15
g11
(g13
S'-\x9c\xe9\xc1\x91\xba\x06@'
tRp657
ssg17
g6
sa(dp658
g3
(dp659
S'k'
I3000
sg5
g6
sg7
I20
ssg8
(dp660
g10
g11
(g13
S'\x99\x07\xab\xba\xb6\xb9\x06@'
tRp661
sg15
g11
(g13
S'#\xb2\x8f\x03\xf2\xbc\x06@'
tRp662
ssg17
g6
sa(dp663
g3
(dp664
S'k'
I3100
sg5
g6
sg7
I20
ssg8
(dp665
g10
g11
(g13
S'h\xda\xa3\x96j\xc3\x06@'
tRp666
sg15
g11
(g13
S'\xcc\x13\xdd\xca\x87\xc6\x06@'
tRp667
ssg17
g6
sa(dp668
g3
(dp669
S'k'
I3200
sg5
g6
sg7
I20
ssg8
(dp670
g10
g11
(g13
S'\x97\xe4?\x7f\x8a\xb8\x06@'
tRp671
sg15
g11
(g13
S'\xb7%\xb7\x8c\xc1\xbb\x06@'
tRp672
ssg17
g6
sa(dp673
g3
(dp674
S'k'
I3300
sg5
g6
sg7
I20
ssg8
(dp675
g10
g11
(g13
S';J\n]\xcc\xbc\x06@'
tRp676
sg15
g11
(g13
S'\xfbm\x99\x07\xc6\xc0\x06@'
tRp677
ssg17
g6
sa(dp678
g3
(dp679
S'k'
I3400
sg5
g6
sg7
I20
ssg8
(dp680
g10
g11
(g13
S'\xe5v\xbc\xa9:\xb7\x06@'
tRp681
sg15
g11
(g13
S'\x1bkx\xdb\xd3\xba\x06@'
tRp682
ssg17
g6
sa(dp683
g3
(dp684
S'k'
I3500
sg5
g6
sg7
I20
ssg8
(dp685
g10
g11
(g13
S'\x85u\x0e\xe6L\xb2\x06@'
tRp686
sg15
g11
(g13
S'\x94\x08\xde\xb8E\xb5\x06@'
tRp687
ssg17
g6
sa(dp688
g3
(dp689
S'k'
I3600
sg5
g6
sg7
I20
ssg8
(dp690
g10
g11
(g13
S'\xfc\xad\xe3\xd2\xa3\xc2\x06@'
tRp691
sg15
g11
(g13
S'Y\x1aG\xd7!\xc6\x06@'
tRp692
ssg17
g6
sa(dp693
g3
(dp694
S'k'
I3700
sg5
g6
sg7
I20
ssg8
(dp695
g10
g11
(g13
S'\x8dJ)\xf9q\xb8\x06@'
tRp696
sg15
g11
(g13
S'b\x01J@\xc7\xbb\x06@'
tRp697
ssg17
g6
sa(dp698
g3
(dp699
S'k'
I3800
sg5
g6
sg7
I20
ssg8
(dp700
g10
g11
(g13
S'\x0e\xa3\x86\x11%\xb7\x06@'
tRp701
sg15
g11
(g13
S'\x10O\xa3\xc3V\xba\x06@'
tRp702
ssg17
g6
sa(dp703
g3
(dp704
S'k'
I3900
sg5
g6
sg7
I20
ssg8
(dp705
g10
g11
(g13
S"\xa4\x91'wv\xb9\x06@"
tRp706
sg15
g11
(g13
S'\xf1\xbf^\xa7\x83\xbc\x06@'
tRp707
ssg17
g6
sa(dp708
g3
(dp709
S'k'
I4000
sg5
g6
sg7
I20
ssg8
(dp710
g10
g11
(g13
S'\x84\xf7\xeb\xd8/\xba\x06@'
tRp711
sg15
g11
(g13
S'\xdf\x06\x88\xb5\xf5\xbc\x06@'
tRp712
ssg17
g6
sa(dp713
g3
(dp714
S'k'
I4100
sg5
g6
sg7
I20
ssg8
(dp715
g10
g11
(g13
S'=\xb72\xd0\x02\xb6\x06@'
tRp716
sg15
g11
(g13
S'\xae\xea\xa0h\x13\xb8\x06@'
tRp717
ssg17
g6
sa(dp718
g3
(dp719
S'k'
I4200
sg5
g6
sg7
I20
ssg8
(dp720
g10
g11
(g13
S'nt;\xf8"\xb2\x06@'
tRp721
sg15
g11
(g13
S'\xf2\xafI\xccr\xb4\x06@'
tRp722
ssg17
g6
sa(dp723
g3
(dp724
S'k'
I4300
sg5
g6
sg7
I20
ssg8
(dp725
g10
g11
(g13
S'\xc3t\xea\xb4P\xb8\x06@'
tRp726
sg15
g11
(g13
S'\x0bR\x13\x9c2\xbb\x06@'
tRp727
ssg17
g6
sa(dp728
g3
(dp729
S'k'
I4400
sg5
g6
sg7
I20
ssg8
(dp730
g10
g11
(g13
S'\x95lt\x1d#\xc0\x06@'
tRp731
sg15
g11
(g13
S'\xc6\x0c\x9d\r\x06\xc2\x06@'
tRp732
ssg17
g6
sa(dp733
g3
(dp734
S'k'
I4500
sg5
g6
sg7
I20
ssg8
(dp735
g10
g11
(g13
S'1@\xe9\xdb\x9d\xbc\x06@'
tRp736
sg15
g11
(g13
S'\xff8\xde\x86\x05\xbf\x06@'
tRp737
ssg17
g6
sa(dp738
g3
(dp739
S'k'
I4600
sg5
g6
sg7
I20
ssg8
(dp740
g10
g11
(g13
S'\xb2a\xa8\xbe\x9d\xb5\x06@'
tRp741
sg15
g11
(g13
S'\xdaB{WY\xb8\x06@'
tRp742
ssg17
g6
sa(dp743
g3
(dp744
S'k'
I4700
sg5
g6
sg7
I20
ssg8
(dp745
g10
g11
(g13
S';\x1f\x13J\x9a\xb0\x06@'
tRp746
sg15
g11
(g13
S'\x9e\x8e\xc1\xa4\xd0\xb2\x06@'
tRp747
ssg17
g6
sa(dp748
g3
(dp749
S'k'
I4800
sg5
g6
sg7
I20
ssg8
(dp750
g10
g11
(g13
S'\xceo\x07\xc3\x1a\xba\x06@'
tRp751
sg15
g11
(g13
S'\x8f\xc4/\x06\x01\xbc\x06@'
tRp752
ssg17
g6
sa(dp753
g3
(dp754
S'k'
I4900
sg5
g6
sg7
I20
ssg8
(dp755
g10
g11
(g13
S'\xd6\xb3+"\xc5\xb4\x06@'
tRp756
sg15
g11
(g13
S'\xdbCi\x9a \xb7\x06@'
tRp757
ssg17
g6
sa(dp758
g3
(dp759
S'k'
I4941
sg5
g6
sg7
I20
ssg8
(dp760
g10
g11
(g13
S'N\xa1\xff\x8c\xe7\xb8\x06@'
tRp761
sg15
g11
(g13
S'\x94\xc8FV\x9f\xbb\x06@'
tRp762
ssg17
g6
sa.