(lp1
(dp2
S'setup'
p3
(dp4
S'k'
I1
sS'dataset'
p5
S'tiny'
p6
sS'numberOfExperiments'
p7
I20
ssS'results'
p8
(dp9
S'MAE (per experiment)'
p10
cnumpy.core.multiarray
scalar
p11
(cnumpy
dtype
p12
(S'f8'
I0
I1
tRp13
(I3
S'<'
NNNI-1
I-1
I0
tbS'(\\\x8f\xc2\xf5(\xcc?'
tRp14
sS'MAE (for all estimates)'
p15
g11
(g13
S'=\x89A`\xe5\xd0\xea?'
tRp16
ssS'dataset'
p17
g6
sa(dp18
g3
(dp19
S'k'
I2
sg5
g6
sg7
I20
ssg8
(dp20
g10
g11
(g13
S'\x99\x99\x99\x99\x99\x99\xc1?'
tRp21
sg15
g11
(g13
S'\x0f-\xb2\x9d\xef\xa7\xe4?'
tRp22
ssg17
g6
sa(dp23
g3
(dp24
S'k'
I3
sg5
g6
sg7
I20
ssg8
(dp25
g10
g11
(g13
S'&\xbfX\xf2\x8b%\xbf?'
tRp26
sg15
g11
(g13
S"<\x98'\xea\xdf\x08\xe1?"
tRp27
ssg17
g6
sa(dp28
g3
(dp29
S'k'
I4
sg5
g6
sg7
I20
ssg8
(dp30
g10
g11
(g13
S'\x83\xebQ\xb8\x1e\x85\xb3?'
tRp31
sg15
g11
(g13
S'\xc8v\xbe\x9f\x1a/\xdf?'
tRp32
ssg17
g6
sa(dp33
g3
(dp34
S'k'
I5
sg5
g6
sg7
I20
ssg8
(dp35
g10
g11
(g13
S'\xf2\xd2Mb\x10X\xb9?'
tRp36
sg15
g11
(g13
S'\xcd\xcc\xcc\xcc\xcc\xcc\xd4?'
tRp37
ssg17
g6
sa(dp38
g3
(dp39
S'k'
I6
sg5
g6
sg7
I20
ssg8
(dp40
g10
g11
(g13
S'=\xb8\x1e\x85\xebQ\xa8?'
tRp41
sg15
g11
(g13
S'\x96\xfcb\xc9/\x96\xd8?'
tRp42
ssg17
g6
sa(dp43
g3
(dp44
S'k'
I7
sg5
g6
sg7
I20
ssg8
(dp45
g10
g11
(g13
S'\x8d$I\x92$I\xb2?'
tRp46
sg15
g11
(g13
S'\xa4d\xf8\xcd\xc0\x87\xd8?'
tRp47
ssg17
g6
sa(dp48
g3
(dp49
S'k'
I8
sg5
g6
sg7
I20
ssg8
(dp50
g10
g11
(g13
S'@\n\xd7\xa3p=\xaa?'
tRp51
sg15
g11
(g13
S'M7\x89A`\xe5\xd2?'
tRp52
ssg17
g6
sa(dp53
g3
(dp54
S'k'
I9
sg5
g6
sg7
I20
ssg8
(dp55
g10
g11
(g13
S'\xb6\x1e\x85\xebQ\xb8\xae?'
tRp56
sg15
g11
(g13
S'\xee\xc3g\xd8\x15 \xd7?'
tRp57
ssg17
g6
sa(dp58
g3
(dp59
S'k'
I10
sg5
g6
sg7
I20
ssg8
(dp60
g10
g11
(g13
S'\x93=\n\xd7\xa3p\xad?'
tRp61
sg15
g11
(g13
S'\x80\xbe\x9f\x1a/\xdd\xcc?'
tRp62
ssg17
g6
sa.