(lp1
(dp2
S'setup'
p3
(dp4
S'k'
I1
sS'dataset'
p5
S'dnc_corecipient'
p6
sS'selectionMethod'
p7
S'MaxMin'
p8
sS'numberOfExperiments'
p9
I20
ssS'results'
p10
(dp11
S'MAE (per experiment)'
p12
cnumpy.core.multiarray
scalar
p13
(cnumpy
dtype
p14
(S'f8'
I0
I1
tRp15
(I3
S'<'
NNNI-1
I-1
I0
tbS'&\xc1\x17j\x03P\xd7?'
tRp16
sS'MAE (for all estimates)'
p17
g13
(g15
S'?\x8d\xc6\xfakn\xeb?'
tRp18
ssS'dataset'
p19
g6
sa.