(lp1
(dp2
S'setup'
p3
(dp4
S'k'
I1
sS'dataset'
p5
S'ego_facebook'
p6
sS'selectionMethod'
p7
S'MaxSum'
p8
sS'numberOfExperiments'
p9
I200
ssS'results'
p10
(dp11
S'MAE (per experiment)'
p12
cnumpy.core.multiarray
scalar
p13
(cnumpy
dtype
p14
(S'f8'
I0
I1
tRp15
(I3
S'<'
NNNI-1
I-1
I0
tbS'\x1f\xbe\x83\xd5\xf0\xd3\xb6?'
tRp16
sS'MAE (for all estimates)'
p17
g13
(g15
S'1&T\xd6p?\xeb?'
tRp18
ssS'dataset'
p19
g6
sa(dp20
g3
(dp21
S'k'
I2
sg5
g6
sg7
g8
sg9
I200
ssg10
(dp22
g12
g13
(g15
S'\xda\xcd\xb0\x10@\xd8\xf1?'
tRp23
sg17
g13
(g15
S'\xf4\x18\xb0U{\xd1\xf2?'
tRp24
ssg19
g6
sa(dp25
g3
(dp26
S'k'
I3
sg5
g6
sg7
g8
sg9
I200
ssg10
(dp27
g12
g13
(g15
S'\xbf\x06J\xaa\x01E\xf6?'
tRp28
sg17
g13
(g15
S'i\xf6N,5w\xf6?'
tRp29
ssg19
g6
sa(dp30
g3
(dp31
S'k'
I4
sg5
g6
sg7
g8
sg9
I200
ssg10
(dp32
g12
g13
(g15
S'\x9e8\x0c\xf3\x0e\x00\xf5?'
tRp33
sg17
g13
(g15
S'\x90r7")\n\xf5?'
tRp34
ssg19
g6
sa(dp35
g3
(dp36
S'k'
I5
sg5
g6
sg7
g8
sg9
I200
ssg10
(dp37
g12
g13
(g15
S'-\xb3%\x9f\xbe\xea\xf7?'
tRp38
sg17
g13
(g15
S'\x8f\xe8\xb9\x9a"H\xf8?'
tRp39
ssg19
g6
sa(dp40
g3
(dp41
S'k'
I6
sg5
g6
sg7
g8
sg9
I200
ssg10
(dp42
g12
g13
(g15
S'\xfas\x18\x146\xfc\xf8?'
tRp43
sg17
g13
(g15
S'\x97\xaa!\x8bV\x14\xf9?'
tRp44
ssg19
g6
sa(dp45
g3
(dp46
S'k'
I7
sg5
g6
sg7
g8
sg9
I200
ssg10
(dp47
g12
g13
(g15
S'\x9f\xf0\xc0\xdd5\xe8\xf7?'
tRp48
sg17
g13
(g15
S'`\xcaW\xc6$\xec\xf7?'
tRp49
ssg19
g6
sa(dp50
S'setup'
p51
(dp52
S'k'
I8
sS'dataset'
p53
S'ego_facebook'
p54
sS'selectionMethod'
p55
S'MaxSum'
p56
sS'numberOfExperiments'
p57
I200
ssS'results'
p58
(dp59
S'MAE (per experiment)'
p60
g13
(g15
S'\xf4\x06\xa3=\xe9\xc0\xf9?'
tRp61
sS'MAE (for all estimates)'
p62
g13
(g15
S'\x8a\xb0\x83\xae\xb8\xc3\xf9?'
tRp63
ssS'dataset'
p64
g54
sa(dp65
g51
(dp66
S'k'
I9
sg53
g54
sg55
g56
sg57
I200
ssg58
(dp67
g60
g13
(g15
S'\xf3\x07\xd7\x1f\xcb\xa2\xf9?'
tRp68
sg62
g13
(g15
S'\x9eJ\x97D\xa2\xb0\xf9?'
tRp69
ssg64
g54
sa(dp70
g51
(dp71
S'k'
I10
sg53
g54
sg55
g56
sg57
I200
ssg58
(dp72
g60
g13
(g15
S'8\xc3\xda]\x06\x93\xf9?'
tRp73
sg62
g13
(g15
S'\xb4a\xe2\xab\x9d\xab\xf9?'
tRp74
ssg64
g54
sa(dp75
S'setup'
p76
(dp77
S'k'
I11
sS'dataset'
p78
S'ego_facebook'
p79
sS'selectionMethod'
p80
S'MaxSum'
p81
sS'numberOfExperiments'
p82
I200
ssS'results'
p83
(dp84
S'MAE (per experiment)'
p85
g13
(g15
S'p\xc8}\x01\xbd\x8e\xf9?'
tRp86
sS'MAE (for all estimates)'
p87
g13
(g15
S'\xc302\x00\r\x8f\xf9?'
tRp88
ssS'dataset'
p89
g79
sa(dp90
g76
(dp91
S'k'
I12
sg78
g79
sg80
g81
sg82
I200
ssg83
(dp92
g85
g13
(g15
S'[o\x8d\xfa\xb5h\xf9?'
tRp93
sg87
g13
(g15
S'\xe5\xb0\\\xac\xdav\xf9?'
tRp94
ssg89
g79
sa(dp95
g76
(dp96
S'k'
I13
sg78
g79
sg80
g81
sg82
I200
ssg83
(dp97
g85
g13
(g15
S'\xe7<\xce\xf9\xe4\xc0\xf9?'
tRp98
sg87
g13
(g15
S'\x1c\x17g\x97\x7f\xd1\xf9?'
tRp99
ssg89
g79
sa.