(lp1
(dp2
S'k'
I2
sS'dataset'
p3
S'tiny_weirdly_numbered'
p4
sS'selectionMethod'
p5
S'MaxMin'
p6
sS'numberOfExperiments'
p7
I20
sa(dp8
S'k'
I3
sg3
g4
sg5
g6
sg7
I20
sa(dp9
S'k'
I4
sg3
g4
sg5
g6
sg7
I20
sa(dp10
S'k'
I5
sg3
g4
sg5
g6
sg7
I20
sa(dp11
S'k'
I6
sg3
g4
sg5
g6
sg7
I20
sa(dp12
S'k'
I7
sg3
g4
sg5
g6
sg7
I20
sa(dp13
S'k'
I8
sg3
g4
sg5
g6
sg7
I20
sa(dp14
S'k'
I9
sg3
g4
sg5
g6
sg7
I20
sa(dp15
S'k'
I10
sg3
g4
sg5
g6
sg7
I20
sa(dp16
S'k'
I11
sg3
g4
sg5
g6
sg7
I20
sa(dp17
S'k'
I12
sg3
g4
sg5
g6
sg7
I20
sa(dp18
S'k'
I13
sg3
g4
sg5
g6
sg7
I20
sa(dp19
S'k'
I14
sg3
g4
sg5
g6
sg7
I20
sa.