(lp1
(dp2
S'k'
I14
sS'dataset'
p3
S'ego_facebook'
p4
sS'selectionMethod'
p5
S'MaxSum'
p6
sS'numberOfExperiments'
p7
I200
sa(dp8
S'k'
I15
sg3
g4
sg5
g6
sg7
I200
sa(dp9
S'k'
I16
sg3
g4
sg5
g6
sg7
I200
sa(dp10
S'k'
I17
sg3
g4
sg5
g6
sg7
I200
sa(dp11
S'k'
I18
sg3
g4
sg5
g6
sg7
I200
sa(dp12
S'k'
I19
sg3
g4
sg5
g6
sg7
I200
sa(dp13
S'k'
I20
sg3
g4
sg5
g6
sg7
I200
sa(dp14
S'k'
I21
sg3
g4
sg5
g6
sg7
I200
sa(dp15
S'k'
I22
sg3
g4
sg5
g6
sg7
I200
sa(dp16
S'k'
I23
sg3
g4
sg5
g6
sg7
I200
sa(dp17
S'k'
I24
sg3
g4
sg5
g6
sg7
I200
sa(dp18
S'k'
I25
sg3
g4
sg5
g6
sg7
I200
sa(dp19
S'k'
I26
sg3
g4
sg5
g6
sg7
I200
sa(dp20
S'k'
I27
sg3
g4
sg5
g6
sg7
I200
sa(dp21
S'k'
I28
sg3
g4
sg5
g6
sg7
I200
sa(dp22
S'k'
I29
sg3
g4
sg5
g6
sg7
I200
sa(dp23
S'k'
I30
sg3
g4
sg5
g6
sg7
I200
sa(dp24
S'k'
I31
sg3
g4
sg5
g6
sg7
I200
sa(dp25
S'k'
I32
sg3
g4
sg5
g6
sg7
I200
sa(dp26
S'k'
I33
sg3
g4
sg5
g6
sg7
I200
sa(dp27
S'k'
I34
sg3
g4
sg5
g6
sg7
I200
sa(dp28
S'k'
I35
sg3
g4
sg5
g6
sg7
I200
sa(dp29
S'k'
I36
sg3
g4
sg5
g6
sg7
I200
sa(dp30
S'k'
I37
sg3
g4
sg5
g6
sg7
I200
sa(dp31
S'k'
I38
sg3
g4
sg5
g6
sg7
I200
sa(dp32
S'k'
I39
sg3
g4
sg5
g6
sg7
I200
sa(dp33
S'k'
I40
sg3
g4
sg5
g6
sg7
I200
sa(dp34
S'k'
I41
sg3
g4
sg5
g6
sg7
I200
sa(dp35
S'k'
I42
sg3
g4
sg5
g6
sg7
I200
sa(dp36
S'k'
I43
sg3
g4
sg5
g6
sg7
I200
sa(dp37
S'k'
I44
sg3
g4
sg5
g6
sg7
I200
sa(dp38
S'k'
I45
sg3
g4
sg5
g6
sg7
I200
sa(dp39
S'k'
I46
sg3
g4
sg5
g6
sg7
I200
sa(dp40
S'k'
I47
sg3
g4
sg5
g6
sg7
I200
sa(dp41
S'k'
I48
sg3
g4
sg5
g6
sg7
I200
sa(dp42
S'k'
I49
sg3
g4
sg5
g6
sg7
I200
sa(dp43
S'k'
I50
sg3
g4
sg5
g6
sg7
I200
sa(dp44
S'k'
I51
sg3
g4
sg5
g6
sg7
I200
sa(dp45
S'k'
I52
sg3
g4
sg5
g6
sg7
I200
sa(dp46
S'k'
I53
sg3
g4
sg5
g6
sg7
I200
sa(dp47
S'k'
I54
sg3
g4
sg5
g6
sg7
I200
sa(dp48
S'k'
I55
sg3
g4
sg5
g6
sg7
I200
sa(dp49
S'k'
I56
sg3
g4
sg5
g6
sg7
I200
sa(dp50
S'k'
I57
sg3
g4
sg5
g6
sg7
I200
sa(dp51
S'k'
I58
sg3
g4
sg5
g6
sg7
I200
sa(dp52
S'k'
I59
sg3
g4
sg5
g6
sg7
I200
sa(dp53
S'k'
I60
sg3
g4
sg5
g6
sg7
I200
sa(dp54
S'k'
I61
sg3
g4
sg5
g6
sg7
I200
sa(dp55
S'k'
I62
sg3
g4
sg5
g6
sg7
I200
sa(dp56
S'k'
I63
sg3
g4
sg5
g6
sg7
I200
sa(dp57
S'k'
I64
sg3
g4
sg5
g6
sg7
I200
sa(dp58
S'k'
I65
sg3
g4
sg5
g6
sg7
I200
sa(dp59
S'k'
I66
sg3
g4
sg5
g6
sg7
I200
sa(dp60
S'k'
I67
sg3
g4
sg5
g6
sg7
I200
sa(dp61
S'k'
I68
sg3
g4
sg5
g6
sg7
I200
sa(dp62
S'k'
I69
sg3
g4
sg5
g6
sg7
I200
sa(dp63
S'k'
I70
sg3
g4
sg5
g6
sg7
I200
sa(dp64
S'k'
I71
sg3
g4
sg5
g6
sg7
I200
sa(dp65
S'k'
I72
sg3
g4
sg5
g6
sg7
I200
sa(dp66
S'k'
I73
sg3
g4
sg5
g6
sg7
I200
sa(dp67
S'k'
I74
sg3
g4
sg5
g6
sg7
I200
sa(dp68
S'k'
I75
sg3
g4
sg5
g6
sg7
I200
sa(dp69
S'k'
I76
sg3
g4
sg5
g6
sg7
I200
sa(dp70
S'k'
I77
sg3
g4
sg5
g6
sg7
I200
sa(dp71
S'k'
I78
sg3
g4
sg5
g6
sg7
I200
sa(dp72
S'k'
I79
sg3
g4
sg5
g6
sg7
I200
sa(dp73
S'k'
I80
sg3
g4
sg5
g6
sg7
I200
sa(dp74
S'k'
I81
sg3
g4
sg5
g6
sg7
I200
sa(dp75
S'k'
I82
sg3
g4
sg5
g6
sg7
I200
sa(dp76
S'k'
I83
sg3
g4
sg5
g6
sg7
I200
sa(dp77
S'k'
I84
sg3
g4
sg5
g6
sg7
I200
sa(dp78
S'k'
I85
sg3
g4
sg5
g6
sg7
I200
sa(dp79
S'k'
I86
sg3
g4
sg5
g6
sg7
I200
sa(dp80
S'k'
I87
sg3
g4
sg5
g6
sg7
I200
sa(dp81
S'k'
I88
sg3
g4
sg5
g6
sg7
I200
sa(dp82
S'k'
I89
sg3
g4
sg5
g6
sg7
I200
sa(dp83
S'k'
I90
sg3
g4
sg5
g6
sg7
I200
sa(dp84
S'k'
I91
sg3
g4
sg5
g6
sg7
I200
sa(dp85
S'k'
I92
sg3
g4
sg5
g6
sg7
I200
sa(dp86
S'k'
I93
sg3
g4
sg5
g6
sg7
I200
sa(dp87
S'k'
I94
sg3
g4
sg5
g6
sg7
I200
sa(dp88
S'k'
I95
sg3
g4
sg5
g6
sg7
I200
sa(dp89
S'k'
I96
sg3
g4
sg5
g6
sg7
I200
sa(dp90
S'k'
I97
sg3
g4
sg5
g6
sg7
I200
sa(dp91
S'k'
I98
sg3
g4
sg5
g6
sg7
I200
sa(dp92
S'k'
I99
sg3
g4
sg5
g6
sg7
I200
sa(dp93
S'k'
I100
sg3
g4
sg5
g6
sg7
I200
sa(dp94
S'k'
I100
sg3
g4
sg5
g6
sg7
I200
sa(dp95
S'k'
I200
sg3
g4
sg5
g6
sg7
I200
sa(dp96
S'k'
I300
sg3
g4
sg5
g6
sg7
I200
sa(dp97
S'k'
I400
sg3
g4
sg5
g6
sg7
I200
sa(dp98
S'k'
I500
sg3
g4
sg5
g6
sg7
I200
sa(dp99
S'k'
I600
sg3
g4
sg5
g6
sg7
I200
sa(dp100
S'k'
I700
sg3
g4
sg5
g6
sg7
I200
sa(dp101
S'k'
I800
sg3
g4
sg5
g6
sg7
I200
sa(dp102
S'k'
I900
sg3
g4
sg5
g6
sg7
I200
sa(dp103
S'k'
I1000
sg3
g4
sg5
g6
sg7
I200
sa(dp104
S'k'
I1100
sg3
g4
sg5
g6
sg7
I200
sa(dp105
S'k'
I1200
sg3
g4
sg5
g6
sg7
I200
sa(dp106
S'k'
I1300
sg3
g4
sg5
g6
sg7
I200
sa(dp107
S'k'
I1400
sg3
g4
sg5
g6
sg7
I200
sa(dp108
S'k'
I1500
sg3
g4
sg5
g6
sg7
I200
sa(dp109
S'k'
I1600
sg3
g4
sg5
g6
sg7
I200
sa(dp110
S'k'
I1700
sg3
g4
sg5
g6
sg7
I200
sa(dp111
S'k'
I1800
sg3
g4
sg5
g6
sg7
I200
sa(dp112
S'k'
I1900
sg3
g4
sg5
g6
sg7
I200
sa(dp113
S'k'
I2000
sg3
g4
sg5
g6
sg7
I200
sa(dp114
S'k'
I2100
sg3
g4
sg5
g6
sg7
I200
sa(dp115
S'k'
I2200
sg3
g4
sg5
g6
sg7
I200
sa(dp116
S'k'
I2300
sg3
g4
sg5
g6
sg7
I200
sa(dp117
S'k'
I2400
sg3
g4
sg5
g6
sg7
I200
sa(dp118
S'k'
I2500
sg3
g4
sg5
g6
sg7
I200
sa(dp119
S'k'
I2600
sg3
g4
sg5
g6
sg7
I200
sa(dp120
S'k'
I2700
sg3
g4
sg5
g6
sg7
I200
sa(dp121
S'k'
I2800
sg3
g4
sg5
g6
sg7
I200
sa(dp122
S'k'
I2888
sg3
g4
sg5
g6
sg7
I200
sa.