(lp1
(dp2
S'k'
I600
sS'numberOfExperiments'
p3
I1000
sS'dataset'
p4
S'ego-facebook'
p5
sa(dp6
S'k'
I700
sg3
I1000
sg4
g5
sa(dp7
S'k'
I800
sg3
I1000
sg4
g5
sa(dp8
S'k'
I900
sg3
I1000
sg4
g5
sa(dp9
S'k'
I1000
sg3
I1000
sg4
g5
sa(dp10
S'k'
I1100
sg3
I1000
sg4
g5
sa(dp11
S'k'
I1200
sg3
I1000
sg4
g5
sa(dp12
S'k'
I1300
sg3
I1000
sg4
g5
sa(dp13
S'k'
I1400
sg3
I1000
sg4
g5
sa(dp14
S'k'
I1500
sg3
I1000
sg4
g5
sa(dp15
S'k'
I1600
sg3
I1000
sg4
g5
sa(dp16
S'k'
I1700
sg3
I1000
sg4
g5
sa(dp17
S'k'
I1800
sg3
I1000
sg4
g5
sa(dp18
S'k'
I1900
sg3
I1000
sg4
g5
sa(dp19
S'k'
I2000
sg3
I1000
sg4
g5
sa(dp20
S'k'
I2100
sg3
I1000
sg4
g5
sa(dp21
S'k'
I2200
sg3
I1000
sg4
g5
sa(dp22
S'k'
I2300
sg3
I1000
sg4
g5
sa(dp23
S'k'
I2400
sg3
I1000
sg4
g5
sa(dp24
S'k'
I2500
sg3
I1000
sg4
g5
sa(dp25
S'k'
I2600
sg3
I1000
sg4
g5
sa(dp26
S'k'
I2700
sg3
I1000
sg4
g5
sa(dp27
S'k'
I2800
sg3
I1000
sg4
g5
sa(dp28
S'k'
I2888
sg3
I1000
sg4
g5
sa(dp29
S'k'
I1
sg3
I1000
sg4
S'moreno_names'
p30
sa(dp31
S'k'
I2
sg3
I1000
sg4
g30
sa(dp32
S'k'
I3
sg3
I1000
sg4
g30
sa(dp33
S'k'
I4
sg3
I1000
sg4
g30
sa(dp34
S'k'
I5
sg3
I1000
sg4
g30
sa(dp35
S'k'
I6
sg3
I1000
sg4
g30
sa(dp36
S'k'
I7
sg3
I1000
sg4
g30
sa(dp37
S'k'
I8
sg3
I1000
sg4
g30
sa(dp38
S'k'
I9
sg3
I1000
sg4
g30
sa(dp39
S'k'
I10
sg3
I1000
sg4
g30
sa(dp40
S'k'
I11
sg3
I1000
sg4
g30
sa(dp41
S'k'
I12
sg3
I1000
sg4
g30
sa(dp42
S'k'
I13
sg3
I1000
sg4
g30
sa(dp43
S'k'
I14
sg3
I1000
sg4
g30
sa(dp44
S'k'
I15
sg3
I1000
sg4
g30
sa(dp45
S'k'
I16
sg3
I1000
sg4
g30
sa(dp46
S'k'
I17
sg3
I1000
sg4
g30
sa(dp47
S'k'
I18
sg3
I1000
sg4
g30
sa(dp48
S'k'
I19
sg3
I1000
sg4
g30
sa(dp49
S'k'
I20
sg3
I1000
sg4
g30
sa(dp50
S'k'
I21
sg3
I1000
sg4
g30
sa(dp51
S'k'
I22
sg3
I1000
sg4
g30
sa(dp52
S'k'
I23
sg3
I1000
sg4
g30
sa(dp53
S'k'
I24
sg3
I1000
sg4
g30
sa(dp54
S'k'
I25
sg3
I1000
sg4
g30
sa(dp55
S'k'
I26
sg3
I1000
sg4
g30
sa(dp56
S'k'
I27
sg3
I1000
sg4
g30
sa(dp57
S'k'
I28
sg3
I1000
sg4
g30
sa(dp58
S'k'
I29
sg3
I1000
sg4
g30
sa(dp59
S'k'
I30
sg3
I1000
sg4
g30
sa(dp60
S'k'
I31
sg3
I1000
sg4
g30
sa(dp61
S'k'
I32
sg3
I1000
sg4
g30
sa(dp62
S'k'
I33
sg3
I1000
sg4
g30
sa(dp63
S'k'
I34
sg3
I1000
sg4
g30
sa(dp64
S'k'
I35
sg3
I1000
sg4
g30
sa(dp65
S'k'
I36
sg3
I1000
sg4
g30
sa(dp66
S'k'
I37
sg3
I1000
sg4
g30
sa(dp67
S'k'
I38
sg3
I1000
sg4
g30
sa(dp68
S'k'
I39
sg3
I1000
sg4
g30
sa(dp69
S'k'
I40
sg3
I1000
sg4
g30
sa(dp70
S'k'
I41
sg3
I1000
sg4
g30
sa(dp71
S'k'
I42
sg3
I1000
sg4
g30
sa(dp72
S'k'
I43
sg3
I1000
sg4
g30
sa(dp73
S'k'
I44
sg3
I1000
sg4
g30
sa(dp74
S'k'
I45
sg3
I1000
sg4
g30
sa(dp75
S'k'
I46
sg3
I1000
sg4
g30
sa(dp76
S'k'
I47
sg3
I1000
sg4
g30
sa(dp77
S'k'
I48
sg3
I1000
sg4
g30
sa(dp78
S'k'
I49
sg3
I1000
sg4
g30
sa(dp79
S'k'
I50
sg3
I1000
sg4
g30
sa(dp80
S'k'
I51
sg3
I1000
sg4
g30
sa(dp81
S'k'
I52
sg3
I1000
sg4
g30
sa(dp82
S'k'
I53
sg3
I1000
sg4
g30
sa(dp83
S'k'
I54
sg3
I1000
sg4
g30
sa(dp84
S'k'
I55
sg3
I1000
sg4
g30
sa(dp85
S'k'
I56
sg3
I1000
sg4
g30
sa(dp86
S'k'
I57
sg3
I1000
sg4
g30
sa(dp87
S'k'
I58
sg3
I1000
sg4
g30
sa(dp88
S'k'
I59
sg3
I1000
sg4
g30
sa(dp89
S'k'
I60
sg3
I1000
sg4
g30
sa(dp90
S'k'
I61
sg3
I1000
sg4
g30
sa(dp91
S'k'
I62
sg3
I1000
sg4
g30
sa(dp92
S'k'
I63
sg3
I1000
sg4
g30
sa(dp93
S'k'
I64
sg3
I1000
sg4
g30
sa(dp94
S'k'
I65
sg3
I1000
sg4
g30
sa(dp95
S'k'
I66
sg3
I1000
sg4
g30
sa(dp96
S'k'
I67
sg3
I1000
sg4
g30
sa(dp97
S'k'
I68
sg3
I1000
sg4
g30
sa(dp98
S'k'
I69
sg3
I1000
sg4
g30
sa(dp99
S'k'
I70
sg3
I1000
sg4
g30
sa(dp100
S'k'
I71
sg3
I1000
sg4
g30
sa(dp101
S'k'
I72
sg3
I1000
sg4
g30
sa(dp102
S'k'
I73
sg3
I1000
sg4
g30
sa(dp103
S'k'
I74
sg3
I1000
sg4
g30
sa(dp104
S'k'
I75
sg3
I1000
sg4
g30
sa(dp105
S'k'
I76
sg3
I1000
sg4
g30
sa(dp106
S'k'
I77
sg3
I1000
sg4
g30
sa(dp107
S'k'
I78
sg3
I1000
sg4
g30
sa(dp108
S'k'
I79
sg3
I1000
sg4
g30
sa(dp109
S'k'
I80
sg3
I1000
sg4
g30
sa(dp110
S'k'
I81
sg3
I1000
sg4
g30
sa(dp111
S'k'
I82
sg3
I1000
sg4
g30
sa(dp112
S'k'
I83
sg3
I1000
sg4
g30
sa(dp113
S'k'
I84
sg3
I1000
sg4
g30
sa(dp114
S'k'
I85
sg3
I1000
sg4
g30
sa(dp115
S'k'
I86
sg3
I1000
sg4
g30
sa(dp116
S'k'
I87
sg3
I1000
sg4
g30
sa(dp117
S'k'
I88
sg3
I1000
sg4
g30
sa(dp118
S'k'
I89
sg3
I1000
sg4
g30
sa(dp119
S'k'
I90
sg3
I1000
sg4
g30
sa(dp120
S'k'
I91
sg3
I1000
sg4
g30
sa(dp121
S'k'
I92
sg3
I1000
sg4
g30
sa(dp122
S'k'
I93
sg3
I1000
sg4
g30
sa(dp123
S'k'
I94
sg3
I1000
sg4
g30
sa(dp124
S'k'
I95
sg3
I1000
sg4
g30
sa(dp125
S'k'
I96
sg3
I1000
sg4
g30
sa(dp126
S'k'
I97
sg3
I1000
sg4
g30
sa(dp127
S'k'
I98
sg3
I1000
sg4
g30
sa(dp128
S'k'
I99
sg3
I1000
sg4
g30
sa(dp129
S'k'
I100
sg3
I1000
sg4
g30
sa(dp130
S'k'
I100
sg3
I1000
sg4
g30
sa(dp131
S'k'
I200
sg3
I1000
sg4
g30
sa(dp132
S'k'
I300
sg3
I1000
sg4
g30
sa(dp133
S'k'
I400
sg3
I1000
sg4
g30
sa(dp134
S'k'
I500
sg3
I1000
sg4
g30
sa(dp135
S'k'
I600
sg3
I1000
sg4
g30
sa(dp136
S'k'
I700
sg3
I1000
sg4
g30
sa(dp137
S'k'
I800
sg3
I1000
sg4
g30
sa(dp138
S'k'
I900
sg3
I1000
sg4
g30
sa(dp139
S'k'
I1000
sg3
I1000
sg4
g30
sa(dp140
S'k'
I1100
sg3
I1000
sg4
g30
sa(dp141
S'k'
I1200
sg3
I1000
sg4
g30
sa(dp142
S'k'
I1300
sg3
I1000
sg4
g30
sa(dp143
S'k'
I1400
sg3
I1000
sg4
g30
sa(dp144
S'k'
I1500
sg3
I1000
sg4
g30
sa(dp145
S'k'
I1600
sg3
I1000
sg4
g30
sa(dp146
S'k'
I1700
sg3
I1000
sg4
g30
sa(dp147
S'k'
I1773
sg3
I1000
sg4
g30
sa(dp148
S'k'
I1
sg3
I1000
sg4
S'moreno_propro'
p149
sa(dp150
S'k'
I2
sg3
I1000
sg4
g149
sa(dp151
S'k'
I3
sg3
I1000
sg4
g149
sa(dp152
S'k'
I4
sg3
I1000
sg4
g149
sa(dp153
S'k'
I5
sg3
I1000
sg4
g149
sa(dp154
S'k'
I6
sg3
I1000
sg4
g149
sa(dp155
S'k'
I7
sg3
I1000
sg4
g149
sa(dp156
S'k'
I8
sg3
I1000
sg4
g149
sa(dp157
S'k'
I9
sg3
I1000
sg4
g149
sa(dp158
S'k'
I10
sg3
I1000
sg4
g149
sa(dp159
S'k'
I11
sg3
I1000
sg4
g149
sa(dp160
S'k'
I12
sg3
I1000
sg4
g149
sa(dp161
S'k'
I13
sg3
I1000
sg4
g149
sa(dp162
S'k'
I14
sg3
I1000
sg4
g149
sa(dp163
S'k'
I15
sg3
I1000
sg4
g149
sa(dp164
S'k'
I16
sg3
I1000
sg4
g149
sa(dp165
S'k'
I17
sg3
I1000
sg4
g149
sa(dp166
S'k'
I18
sg3
I1000
sg4
g149
sa(dp167
S'k'
I19
sg3
I1000
sg4
g149
sa(dp168
S'k'
I20
sg3
I1000
sg4
g149
sa(dp169
S'k'
I21
sg3
I1000
sg4
g149
sa(dp170
S'k'
I22
sg3
I1000
sg4
g149
sa(dp171
S'k'
I23
sg3
I1000
sg4
g149
sa(dp172
S'k'
I24
sg3
I1000
sg4
g149
sa(dp173
S'k'
I25
sg3
I1000
sg4
g149
sa(dp174
S'k'
I26
sg3
I1000
sg4
g149
sa(dp175
S'k'
I27
sg3
I1000
sg4
g149
sa(dp176
S'k'
I28
sg3
I1000
sg4
g149
sa(dp177
S'k'
I29
sg3
I1000
sg4
g149
sa(dp178
S'k'
I30
sg3
I1000
sg4
g149
sa(dp179
S'k'
I31
sg3
I1000
sg4
g149
sa(dp180
S'k'
I32
sg3
I1000
sg4
g149
sa(dp181
S'k'
I33
sg3
I1000
sg4
g149
sa(dp182
S'k'
I34
sg3
I1000
sg4
g149
sa(dp183
S'k'
I35
sg3
I1000
sg4
g149
sa(dp184
S'k'
I36
sg3
I1000
sg4
g149
sa(dp185
S'k'
I37
sg3
I1000
sg4
g149
sa(dp186
S'k'
I38
sg3
I1000
sg4
g149
sa(dp187
S'k'
I39
sg3
I1000
sg4
g149
sa(dp188
S'k'
I40
sg3
I1000
sg4
g149
sa(dp189
S'k'
I41
sg3
I1000
sg4
g149
sa(dp190
S'k'
I42
sg3
I1000
sg4
g149
sa(dp191
S'k'
I43
sg3
I1000
sg4
g149
sa(dp192
S'k'
I44
sg3
I1000
sg4
g149
sa(dp193
S'k'
I45
sg3
I1000
sg4
g149
sa(dp194
S'k'
I46
sg3
I1000
sg4
g149
sa(dp195
S'k'
I47
sg3
I1000
sg4
g149
sa(dp196
S'k'
I48
sg3
I1000
sg4
g149
sa(dp197
S'k'
I49
sg3
I1000
sg4
g149
sa(dp198
S'k'
I50
sg3
I1000
sg4
g149
sa(dp199
S'k'
I51
sg3
I1000
sg4
g149
sa(dp200
S'k'
I52
sg3
I1000
sg4
g149
sa(dp201
S'k'
I53
sg3
I1000
sg4
g149
sa(dp202
S'k'
I54
sg3
I1000
sg4
g149
sa(dp203
S'k'
I55
sg3
I1000
sg4
g149
sa(dp204
S'k'
I56
sg3
I1000
sg4
g149
sa(dp205
S'k'
I57
sg3
I1000
sg4
g149
sa(dp206
S'k'
I58
sg3
I1000
sg4
g149
sa(dp207
S'k'
I59
sg3
I1000
sg4
g149
sa(dp208
S'k'
I60
sg3
I1000
sg4
g149
sa(dp209
S'k'
I61
sg3
I1000
sg4
g149
sa(dp210
S'k'
I62
sg3
I1000
sg4
g149
sa(dp211
S'k'
I63
sg3
I1000
sg4
g149
sa(dp212
S'k'
I64
sg3
I1000
sg4
g149
sa(dp213
S'k'
I65
sg3
I1000
sg4
g149
sa(dp214
S'k'
I66
sg3
I1000
sg4
g149
sa(dp215
S'k'
I67
sg3
I1000
sg4
g149
sa(dp216
S'k'
I68
sg3
I1000
sg4
g149
sa(dp217
S'k'
I69
sg3
I1000
sg4
g149
sa(dp218
S'k'
I70
sg3
I1000
sg4
g149
sa(dp219
S'k'
I71
sg3
I1000
sg4
g149
sa(dp220
S'k'
I72
sg3
I1000
sg4
g149
sa(dp221
S'k'
I73
sg3
I1000
sg4
g149
sa(dp222
S'k'
I74
sg3
I1000
sg4
g149
sa(dp223
S'k'
I75
sg3
I1000
sg4
g149
sa(dp224
S'k'
I76
sg3
I1000
sg4
g149
sa(dp225
S'k'
I77
sg3
I1000
sg4
g149
sa(dp226
S'k'
I78
sg3
I1000
sg4
g149
sa(dp227
S'k'
I79
sg3
I1000
sg4
g149
sa(dp228
S'k'
I80
sg3
I1000
sg4
g149
sa(dp229
S'k'
I81
sg3
I1000
sg4
g149
sa(dp230
S'k'
I82
sg3
I1000
sg4
g149
sa(dp231
S'k'
I83
sg3
I1000
sg4
g149
sa(dp232
S'k'
I84
sg3
I1000
sg4
g149
sa(dp233
S'k'
I85
sg3
I1000
sg4
g149
sa(dp234
S'k'
I86
sg3
I1000
sg4
g149
sa(dp235
S'k'
I87
sg3
I1000
sg4
g149
sa(dp236
S'k'
I88
sg3
I1000
sg4
g149
sa(dp237
S'k'
I89
sg3
I1000
sg4
g149
sa(dp238
S'k'
I90
sg3
I1000
sg4
g149
sa(dp239
S'k'
I91
sg3
I1000
sg4
g149
sa(dp240
S'k'
I92
sg3
I1000
sg4
g149
sa(dp241
S'k'
I93
sg3
I1000
sg4
g149
sa(dp242
S'k'
I94
sg3
I1000
sg4
g149
sa(dp243
S'k'
I95
sg3
I1000
sg4
g149
sa(dp244
S'k'
I96
sg3
I1000
sg4
g149
sa(dp245
S'k'
I97
sg3
I1000
sg4
g149
sa(dp246
S'k'
I98
sg3
I1000
sg4
g149
sa(dp247
S'k'
I99
sg3
I1000
sg4
g149
sa(dp248
S'k'
I100
sg3
I1000
sg4
g149
sa(dp249
S'k'
I100
sg3
I1000
sg4
g149
sa(dp250
S'k'
I200
sg3
I1000
sg4
g149
sa(dp251
S'k'
I300
sg3
I1000
sg4
g149
sa(dp252
S'k'
I400
sg3
I1000
sg4
g149
sa(dp253
S'k'
I500
sg3
I1000
sg4
g149
sa(dp254
S'k'
I600
sg3
I1000
sg4
g149
sa(dp255
S'k'
I700
sg3
I1000
sg4
g149
sa(dp256
S'k'
I800
sg3
I1000
sg4
g149
sa(dp257
S'k'
I900
sg3
I1000
sg4
g149
sa(dp258
S'k'
I1000
sg3
I1000
sg4
g149
sa(dp259
S'k'
I1100
sg3
I1000
sg4
g149
sa(dp260
S'k'
I1200
sg3
I1000
sg4
g149
sa(dp261
S'k'
I1300
sg3
I1000
sg4
g149
sa(dp262
S'k'
I1400
sg3
I1000
sg4
g149
sa(dp263
S'k'
I1500
sg3
I1000
sg4
g149
sa(dp264
S'k'
I1600
sg3
I1000
sg4
g149
sa(dp265
S'k'
I1700
sg3
I1000
sg4
g149
sa(dp266
S'k'
I1800
sg3
I1000
sg4
g149
sa(dp267
S'k'
I1870
sg3
I1000
sg4
g149
sa(dp268
S'k'
I1
sg3
I1000
sg4
S'opsahl-powergrid'
p269
sa(dp270
S'k'
I2
sg3
I1000
sg4
g269
sa(dp271
S'k'
I3
sg3
I1000
sg4
g269
sa(dp272
S'k'
I4
sg3
I1000
sg4
g269
sa(dp273
S'k'
I5
sg3
I1000
sg4
g269
sa(dp274
S'k'
I6
sg3
I1000
sg4
g269
sa(dp275
S'k'
I7
sg3
I1000
sg4
g269
sa(dp276
S'k'
I8
sg3
I1000
sg4
g269
sa(dp277
S'k'
I9
sg3
I1000
sg4
g269
sa(dp278
S'k'
I10
sg3
I1000
sg4
g269
sa(dp279
S'k'
I11
sg3
I1000
sg4
g269
sa(dp280
S'k'
I12
sg3
I1000
sg4
g269
sa(dp281
S'k'
I13
sg3
I1000
sg4
g269
sa(dp282
S'k'
I14
sg3
I1000
sg4
g269
sa(dp283
S'k'
I15
sg3
I1000
sg4
g269
sa(dp284
S'k'
I16
sg3
I1000
sg4
g269
sa(dp285
S'k'
I17
sg3
I1000
sg4
g269
sa(dp286
S'k'
I18
sg3
I1000
sg4
g269
sa(dp287
S'k'
I19
sg3
I1000
sg4
g269
sa(dp288
S'k'
I20
sg3
I1000
sg4
g269
sa(dp289
S'k'
I21
sg3
I1000
sg4
g269
sa(dp290
S'k'
I22
sg3
I1000
sg4
g269
sa(dp291
S'k'
I23
sg3
I1000
sg4
g269
sa(dp292
S'k'
I24
sg3
I1000
sg4
g269
sa(dp293
S'k'
I25
sg3
I1000
sg4
g269
sa(dp294
S'k'
I26
sg3
I1000
sg4
g269
sa(dp295
S'k'
I27
sg3
I1000
sg4
g269
sa(dp296
S'k'
I28
sg3
I1000
sg4
g269
sa(dp297
S'k'
I29
sg3
I1000
sg4
g269
sa(dp298
S'k'
I30
sg3
I1000
sg4
g269
sa(dp299
S'k'
I31
sg3
I1000
sg4
g269
sa(dp300
S'k'
I32
sg3
I1000
sg4
g269
sa(dp301
S'k'
I33
sg3
I1000
sg4
g269
sa(dp302
S'k'
I34
sg3
I1000
sg4
g269
sa(dp303
S'k'
I35
sg3
I1000
sg4
g269
sa(dp304
S'k'
I36
sg3
I1000
sg4
g269
sa(dp305
S'k'
I37
sg3
I1000
sg4
g269
sa(dp306
S'k'
I38
sg3
I1000
sg4
g269
sa(dp307
S'k'
I39
sg3
I1000
sg4
g269
sa(dp308
S'k'
I40
sg3
I1000
sg4
g269
sa(dp309
S'k'
I41
sg3
I1000
sg4
g269
sa(dp310
S'k'
I42
sg3
I1000
sg4
g269
sa(dp311
S'k'
I43
sg3
I1000
sg4
g269
sa(dp312
S'k'
I44
sg3
I1000
sg4
g269
sa(dp313
S'k'
I45
sg3
I1000
sg4
g269
sa(dp314
S'k'
I46
sg3
I1000
sg4
g269
sa(dp315
S'k'
I47
sg3
I1000
sg4
g269
sa(dp316
S'k'
I48
sg3
I1000
sg4
g269
sa(dp317
S'k'
I49
sg3
I1000
sg4
g269
sa(dp318
S'k'
I50
sg3
I1000
sg4
g269
sa(dp319
S'k'
I51
sg3
I1000
sg4
g269
sa(dp320
S'k'
I52
sg3
I1000
sg4
g269
sa(dp321
S'k'
I53
sg3
I1000
sg4
g269
sa(dp322
S'k'
I54
sg3
I1000
sg4
g269
sa(dp323
S'k'
I55
sg3
I1000
sg4
g269
sa(dp324
S'k'
I56
sg3
I1000
sg4
g269
sa(dp325
S'k'
I57
sg3
I1000
sg4
g269
sa(dp326
S'k'
I58
sg3
I1000
sg4
g269
sa(dp327
S'k'
I59
sg3
I1000
sg4
g269
sa(dp328
S'k'
I60
sg3
I1000
sg4
g269
sa(dp329
S'k'
I61
sg3
I1000
sg4
g269
sa(dp330
S'k'
I62
sg3
I1000
sg4
g269
sa(dp331
S'k'
I63
sg3
I1000
sg4
g269
sa(dp332
S'k'
I64
sg3
I1000
sg4
g269
sa(dp333
S'k'
I65
sg3
I1000
sg4
g269
sa(dp334
S'k'
I66
sg3
I1000
sg4
g269
sa(dp335
S'k'
I67
sg3
I1000
sg4
g269
sa(dp336
S'k'
I68
sg3
I1000
sg4
g269
sa(dp337
S'k'
I69
sg3
I1000
sg4
g269
sa(dp338
S'k'
I70
sg3
I1000
sg4
g269
sa(dp339
S'k'
I71
sg3
I1000
sg4
g269
sa(dp340
S'k'
I72
sg3
I1000
sg4
g269
sa(dp341
S'k'
I73
sg3
I1000
sg4
g269
sa(dp342
S'k'
I74
sg3
I1000
sg4
g269
sa(dp343
S'k'
I75
sg3
I1000
sg4
g269
sa(dp344
S'k'
I76
sg3
I1000
sg4
g269
sa(dp345
S'k'
I77
sg3
I1000
sg4
g269
sa(dp346
S'k'
I78
sg3
I1000
sg4
g269
sa(dp347
S'k'
I79
sg3
I1000
sg4
g269
sa(dp348
S'k'
I80
sg3
I1000
sg4
g269
sa(dp349
S'k'
I81
sg3
I1000
sg4
g269
sa(dp350
S'k'
I82
sg3
I1000
sg4
g269
sa(dp351
S'k'
I83
sg3
I1000
sg4
g269
sa(dp352
S'k'
I84
sg3
I1000
sg4
g269
sa(dp353
S'k'
I85
sg3
I1000
sg4
g269
sa(dp354
S'k'
I86
sg3
I1000
sg4
g269
sa(dp355
S'k'
I87
sg3
I1000
sg4
g269
sa(dp356
S'k'
I88
sg3
I1000
sg4
g269
sa(dp357
S'k'
I89
sg3
I1000
sg4
g269
sa(dp358
S'k'
I90
sg3
I1000
sg4
g269
sa(dp359
S'k'
I91
sg3
I1000
sg4
g269
sa(dp360
S'k'
I92
sg3
I1000
sg4
g269
sa(dp361
S'k'
I93
sg3
I1000
sg4
g269
sa(dp362
S'k'
I94
sg3
I1000
sg4
g269
sa(dp363
S'k'
I95
sg3
I1000
sg4
g269
sa(dp364
S'k'
I96
sg3
I1000
sg4
g269
sa(dp365
S'k'
I97
sg3
I1000
sg4
g269
sa(dp366
S'k'
I98
sg3
I1000
sg4
g269
sa(dp367
S'k'
I99
sg3
I1000
sg4
g269
sa(dp368
S'k'
I100
sg3
I1000
sg4
g269
sa(dp369
S'k'
I100
sg3
I1000
sg4
g269
sa(dp370
S'k'
I200
sg3
I1000
sg4
g269
sa(dp371
S'k'
I300
sg3
I1000
sg4
g269
sa(dp372
S'k'
I400
sg3
I1000
sg4
g269
sa(dp373
S'k'
I500
sg3
I1000
sg4
g269
sa(dp374
S'k'
I600
sg3
I1000
sg4
g269
sa(dp375
S'k'
I700
sg3
I1000
sg4
g269
sa(dp376
S'k'
I800
sg3
I1000
sg4
g269
sa(dp377
S'k'
I900
sg3
I1000
sg4
g269
sa(dp378
S'k'
I1000
sg3
I1000
sg4
g269
sa(dp379
S'k'
I1100
sg3
I1000
sg4
g269
sa(dp380
S'k'
I1200
sg3
I1000
sg4
g269
sa(dp381
S'k'
I1300
sg3
I1000
sg4
g269
sa(dp382
S'k'
I1400
sg3
I1000
sg4
g269
sa(dp383
S'k'
I1500
sg3
I1000
sg4
g269
sa(dp384
S'k'
I1600
sg3
I1000
sg4
g269
sa(dp385
S'k'
I1700
sg3
I1000
sg4
g269
sa(dp386
S'k'
I1800
sg3
I1000
sg4
g269
sa(dp387
S'k'
I1900
sg3
I1000
sg4
g269
sa(dp388
S'k'
I2000
sg3
I1000
sg4
g269
sa(dp389
S'k'
I2100
sg3
I1000
sg4
g269
sa(dp390
S'k'
I2200
sg3
I1000
sg4
g269
sa(dp391
S'k'
I2300
sg3
I1000
sg4
g269
sa(dp392
S'k'
I2400
sg3
I1000
sg4
g269
sa(dp393
S'k'
I2500
sg3
I1000
sg4
g269
sa(dp394
S'k'
I2600
sg3
I1000
sg4
g269
sa(dp395
S'k'
I2700
sg3
I1000
sg4
g269
sa(dp396
S'k'
I2800
sg3
I1000
sg4
g269
sa(dp397
S'k'
I2900
sg3
I1000
sg4
g269
sa(dp398
S'k'
I3000
sg3
I1000
sg4
g269
sa(dp399
S'k'
I3100
sg3
I1000
sg4
g269
sa(dp400
S'k'
I3200
sg3
I1000
sg4
g269
sa(dp401
S'k'
I3300
sg3
I1000
sg4
g269
sa(dp402
S'k'
I3400
sg3
I1000
sg4
g269
sa(dp403
S'k'
I3500
sg3
I1000
sg4
g269
sa(dp404
S'k'
I3600
sg3
I1000
sg4
g269
sa(dp405
S'k'
I3700
sg3
I1000
sg4
g269
sa(dp406
S'k'
I3800
sg3
I1000
sg4
g269
sa(dp407
S'k'
I3900
sg3
I1000
sg4
g269
sa(dp408
S'k'
I4000
sg3
I1000
sg4
g269
sa(dp409
S'k'
I4100
sg3
I1000
sg4
g269
sa(dp410
S'k'
I4200
sg3
I1000
sg4
g269
sa(dp411
S'k'
I4300
sg3
I1000
sg4
g269
sa(dp412
S'k'
I4400
sg3
I1000
sg4
g269
sa(dp413
S'k'
I4500
sg3
I1000
sg4
g269
sa(dp414
S'k'
I4600
sg3
I1000
sg4
g269
sa(dp415
S'k'
I4700
sg3
I1000
sg4
g269
sa(dp416
S'k'
I4800
sg3
I1000
sg4
g269
sa(dp417
S'k'
I4900
sg3
I1000
sg4
g269
sa(dp418
S'k'
I4941
sg3
I1000
sg4
g269
sa(dp419
S'k'
I1
sg3
I1000
sg4
S'tiny'
p420
sa(dp421
S'k'
I2
sg3
I1000
sg4
g420
sa(dp422
S'k'
I3
sg3
I1000
sg4
g420
sa(dp423
S'k'
I4
sg3
I1000
sg4
g420
sa(dp424
S'k'
I5
sg3
I1000
sg4
g420
sa(dp425
S'k'
I6
sg3
I1000
sg4
g420
sa(dp426
S'k'
I7
sg3
I1000
sg4
g420
sa(dp427
S'k'
I8
sg3
I1000
sg4
g420
sa(dp428
S'k'
I9
sg3
I1000
sg4
g420
sa(dp429
S'k'
I10
sg3
I1000
sg4
g420
sa.