(lp1
(dp2
S'k'
I1
sS'numberOfExperiments'
p3
I200
sS'dataset'
p4
S'tiny'
p5
sa(dp6
S'k'
I2
sg3
I200
sg4
g5
sa(dp7
S'k'
I3
sg3
I200
sg4
g5
sa(dp8
S'k'
I4
sg3
I200
sg4
g5
sa(dp9
S'k'
I5
sg3
I200
sg4
g5
sa(dp10
S'k'
I6
sg3
I200
sg4
g5
sa(dp11
S'k'
I7
sg3
I200
sg4
g5
sa(dp12
S'k'
I8
sg3
I200
sg4
g5
sa(dp13
S'k'
I9
sg3
I200
sg4
g5
sa(dp14
S'k'
I10
sg3
I200
sg4
g5
sa.