(lp1
(dp2
S'setup'
p3
(dp4
S'k'
I1
sS'numberOfExperiments'
p5
I1000
sS'dataset'
p6
S'dnc-corecipient'
p7
ssS'results'
p8
(dp9
S'MAE (per experiment)'
p10
cnumpy.core.multiarray
scalar
p11
(cnumpy
dtype
p12
(S'f8'
I0
I1
tRp13
(I3
S'<'
NNNI-1
I-1
I0
tbS'o\xe7F+\x04\x87\xe6?'
tRp14
sS'MAE (for all estimates)'
p15
g11
(g13
S'\xab\xe1\x033\xe28\xf1?'
tRp16
ssg6
g7
sa(dp17
g3
(dp18
S'k'
I2
sg5
I1000
sg6
g7
ssg8
(dp19
g10
g11
(g13
S'\x1f1\x83\xcc\xa0\xc5\xe6?'
tRp20
sg15
g11
(g13
S'\xd1\xb9\xc2\xd32\xcc\xed?'
tRp21
ssg6
g7
sa(dp22
g3
(dp23
S'k'
I3
sg5
I1000
sg6
g7
ssg8
(dp24
g10
g11
(g13
S'M\xd2\xe8\xde\x12\xa7\xe6?'
tRp25
sg15
g11
(g13
S'\xa38\x1b\x8aE\xb5\xeb?'
tRp26
ssg6
g7
sa(dp27
g3
(dp28
S'k'
I4
sg5
I1000
sg6
g7
ssg8
(dp29
g10
g11
(g13
S'$\xf3\xd0\x17\xf7\xaa\xe6?'
tRp30
sg15
g11
(g13
S'\xaa]E;1r\xea?'
tRp31
ssg6
g7
sa(dp32
g3
(dp33
S'k'
I5
sg5
I1000
sg6
g7
ssg8
(dp34
g10
g11
(g13
S'\x94\xcd\xbb\x88\x1f\x9d\xe6?'
tRp35
sg15
g11
(g13
S'\x0b5xLt\xea\xe9?'
tRp36
ssg6
g7
sa(dp37
g3
(dp38
S'k'
I6
sg5
I1000
sg6
g7
ssg8
(dp39
g10
g11
(g13
S'\x81$\x1b/\xfdy\xe6?'
tRp40
sg15
g11
(g13
S'.\x8a\xc1t\xebr\xe9?'
tRp41
ssg6
g7
sa(dp42
g3
(dp43
S'k'
I7
sg5
I1000
sg6
g7
ssg8
(dp44
g10
g11
(g13
S'\x80x\xbcRh\x9d\xe6?'
tRp45
sg15
g11
(g13
S'\xc7\x00\xea\x01\xc5\xe4\xe8?'
tRp46
ssg6
g7
sa(dp47
g3
(dp48
S'k'
I8
sg5
I1000
sg6
g7
ssg8
(dp49
g10
g11
(g13
S'\x16\xd2n\xb3\xd7\xa7\xe6?'
tRp50
sg15
g11
(g13
S'\x02\x16\xa4\xfa\x89\xe0\xe8?'
tRp51
ssg6
g7
sa(dp52
g3
(dp53
S'k'
I9
sg5
I1000
sg6
g7
ssg8
(dp54
g10
g11
(g13
S'\xf6\xb6\x18\xddh\xb9\xe6?'
tRp55
sg15
g11
(g13
S'\x03\x99p\xea\x8b\x9e\xe8?'
tRp56
ssg6
g7
sa(dp57
g3
(dp58
S'k'
I10
sg5
I1000
sg6
g7
ssg8
(dp59
g10
g11
(g13
S'\xcd\x06\x14u2\x9c\xe6?'
tRp60
sg15
g11
(g13
S'K\x07\x9e\x84~S\xe8?'
tRp61
ssg6
g7
sa(dp62
g3
(dp63
S'k'
I11
sg5
I1000
sg6
g7
ssg8
(dp64
g10
g11
(g13
S'/%\x88Y\xbd\x9c\xe6?'
tRp65
sg15
g11
(g13
S'\x87\xd8\x0e\xf4`=\xe8?'
tRp66
ssg6
g7
sa(dp67
g3
(dp68
S'k'
I12
sg5
I1000
sg6
g7
ssg8
(dp69
g10
g11
(g13
S'q;\x9b\xa7:\xb1\xe6?'
tRp70
sg15
g11
(g13
S'GH\x8e\x00\xe58\xe8?'
tRp71
ssg6
g7
sa(dp72
g3
(dp73
S'k'
I13
sg5
I1000
sg6
g7
ssg8
(dp74
g10
g11
(g13
S'H<O\x99I\x96\xe6?'
tRp75
sg15
g11
(g13
S'\xd5\xdb\x06\xcc6\t\xe8?'
tRp76
ssg6
g7
sa(dp77
g3
(dp78
S'k'
I14
sg5
I1000
sg6
g7
ssg8
(dp79
g10
g11
(g13
S'mk(\xc2\xb6\xce\xe6?'
tRp80
sg15
g11
(g13
S'r\xb4,\xb2\xf9\x08\xe8?'
tRp81
ssg6
g7
sa(dp82
g3
(dp83
S'k'
I15
sg5
I1000
sg6
g7
ssg8
(dp84
g10
g11
(g13
S')\xe4\x93\\\xa4\x9c\xe6?'
tRp85
sg15
g11
(g13
S'\xe0\xb1X\x84,\xde\xe7?'
tRp86
ssg6
g7
sa(dp87
g3
(dp88
S'k'
I16
sg5
I1000
sg6
g7
ssg8
(dp89
g10
g11
(g13
S'\xddn9\x98\x8c\x98\xe6?'
tRp90
sg15
g11
(g13
S'\xa7\xb8\x9f&\xed\xb9\xe7?'
tRp91
ssg6
g7
sa(dp92
g3
(dp93
S'k'
I17
sg5
I1000
sg6
g7
ssg8
(dp94
g10
g11
(g13
S'\xcc\xb4\xeb6/\xaa\xe6?'
tRp95
sg15
g11
(g13
S'\x92\x006\x98\x08\xc6\xe7?'
tRp96
ssg6
g7
sa(dp97
g3
(dp98
S'k'
I18
sg5
I1000
sg6
g7
ssg8
(dp99
g10
g11
(g13
S'\xd4\xf0\xf4@<\xa9\xe6?'
tRp100
sg15
g11
(g13
S'vmO\xc0?\xb5\xe7?'
tRp101
ssg6
g7
sa(dp102
g3
(dp103
S'k'
I19
sg5
I1000
sg6
g7
ssg8
(dp104
g10
g11
(g13
S'\xc0\x00tJC\xad\xe6?'
tRp105
sg15
g11
(g13
S'\x9a\x1e\x91B\xaf\x9a\xe7?'
tRp106
ssg6
g7
sa(dp107
g3
(dp108
S'k'
I20
sg5
I1000
sg6
g7
ssg8
(dp109
g10
g11
(g13
S'\xfeL\x82\x00@\x9c\xe6?'
tRp110
sg15
g11
(g13
S'q\x9eq\x10n~\xe7?'
tRp111
ssg6
g7
sa(dp112
g3
(dp113
S'k'
I21
sg5
I1000
sg6
g7
ssg8
(dp114
g10
g11
(g13
S'&\x19T\xd4%\xa2\xe6?'
tRp115
sg15
g11
(g13
S'\x98>{\x11p\x86\xe7?'
tRp116
ssg6
g7
sa(dp117
g3
(dp118
S'k'
I22
sg5
I1000
sg6
g7
ssg8
(dp119
g10
g11
(g13
S'nQ6n\xac\xa1\xe6?'
tRp120
sg15
g11
(g13
S'\x11>T\x98{~\xe7?'
tRp121
ssg6
g7
sa(dp122
g3
(dp123
S'k'
I23
sg5
I1000
sg6
g7
ssg8
(dp124
g10
g11
(g13
S'w\xb2"\xf3p\xb0\xe6?'
tRp125
sg15
g11
(g13
S'n\xa8\xb6:a\x83\xe7?'
tRp126
ssg6
g7
sa(dp127
g3
(dp128
S'k'
I24
sg5
I1000
sg6
g7
ssg8
(dp129
g10
g11
(g13
S'\xf4\xb0\xe3\xfe\x05\xa1\xe6?'
tRp130
sg15
g11
(g13
S'Pt\t\xdb&a\xe7?'
tRp131
ssg6
g7
sa(dp132
g3
(dp133
S'k'
I25
sg5
I1000
sg6
g7
ssg8
(dp134
g10
g11
(g13
S'\x9c\xc7F\x99p\xb8\xe6?'
tRp135
sg15
g11
(g13
S'\x86XdG\xb6u\xe7?'
tRp136
ssg6
g7
sa(dp137
g3
(dp138
S'k'
I26
sg5
I1000
sg6
g7
ssg8
(dp139
g10
g11
(g13
S'] \xa9U\xb4\xa6\xe6?'
tRp140
sg15
g11
(g13
S'm\xae\xef\x93\x19Y\xe7?'
tRp141
ssg6
g7
sa(dp142
g3
(dp143
S'k'
I27
sg5
I1000
sg6
g7
ssg8
(dp144
g10
g11
(g13
S'#5u\xb4\x0e\xb5\xe6?'
tRp145
sg15
g11
(g13
S'7J\x9a%\xfff\xe7?'
tRp146
ssg6
g7
sa(dp147
g3
(dp148
S'k'
I28
sg5
I1000
sg6
g7
ssg8
(dp149
g10
g11
(g13
S'r\x87x\x18\xfb\x9c\xe6?'
tRp150
sg15
g11
(g13
S'>:\xff\xc0\rL\xe7?'
tRp151
ssg6
g7
sa(dp152
g3
(dp153
S'k'
I29
sg5
I1000
sg6
g7
ssg8
(dp154
g10
g11
(g13
S'\xe1\xf4\xb0n\xb2\xa3\xe6?'
tRp155
sg15
g11
(g13
S'\x95\xf0\xb0G\tK\xe7?'
tRp156
ssg6
g7
sa(dp157
g3
(dp158
S'k'
I30
sg5
I1000
sg6
g7
ssg8
(dp159
g10
g11
(g13
S'/\x12\xdb\x9f\xe8\x9b\xe6?'
tRp160
sg15
g11
(g13
S'R3\xf1\x1atA\xe7?'
tRp161
ssg6
g7
sa(dp162
g3
(dp163
S'k'
I31
sg5
I1000
sg6
g7
ssg8
(dp164
g10
g11
(g13
S'aa%*8\x9f\xe6?'
tRp165
sg15
g11
(g13
S'&\x1e\xfe\xb0\x155\xe7?'
tRp166
ssg6
g7
sa(dp167
g3
(dp168
S'k'
I32
sg5
I1000
sg6
g7
ssg8
(dp169
g10
g11
(g13
S'\x96;\xd4\\v\x9d\xe6?'
tRp170
sg15
g11
(g13
S'\xb6\xede\xb9\x065\xe7?'
tRp171
ssg6
g7
sa(dp172
g3
(dp173
S'k'
I33
sg5
I1000
sg6
g7
ssg8
(dp174
g10
g11
(g13
S'G\xad;\xed\x01\xa2\xe6?'
tRp175
sg15
g11
(g13
S'\xfb5\xf4qW+\xe7?'
tRp176
ssg6
g7
sa(dp177
g3
(dp178
S'k'
I34
sg5
I1000
sg6
g7
ssg8
(dp179
g10
g11
(g13
S'\xdcf\x90l\xbd\x93\xe6?'
tRp180
sg15
g11
(g13
S'5\xaf2}\x93(\xe7?'
tRp181
ssg6
g7
sa(dp182
g3
(dp183
S'k'
I35
sg5
I1000
sg6
g7
ssg8
(dp184
g10
g11
(g13
S'\x08\xfc1\xac\xb1\xa3\xe6?'
tRp185
sg15
g11
(g13
S'\xa7}\xdd\xe4\x1a#\xe7?'
tRp186
ssg6
g7
sa(dp187
g3
(dp188
S'k'
I36
sg5
I1000
sg6
g7
ssg8
(dp189
g10
g11
(g13
S'\xdf\xe1/\x0c\xdc\x9f\xe6?'
tRp190
sg15
g11
(g13
S'A\xbdy\xd0\xd6 \xe7?'
tRp191
ssg6
g7
sa(dp192
g3
(dp193
S'k'
I37
sg5
I1000
sg6
g7
ssg8
(dp194
g10
g11
(g13
S'\xcd\x06\xb5\x13M\x9d\xe6?'
tRp195
sg15
g11
(g13
S'9_@\xcb\xd1#\xe7?'
tRp196
ssg6
g7
sa(dp197
g3
(dp198
S'k'
I38
sg5
I1000
sg6
g7
ssg8
(dp199
g10
g11
(g13
S'B\xea\x07\x867\xa2\xe6?'
tRp200
sg15
g11
(g13
S'\xdc(y#Y\x15\xe7?'
tRp201
ssg6
g7
sa(dp202
g3
(dp203
S'k'
I39
sg5
I1000
sg6
g7
ssg8
(dp204
g10
g11
(g13
S'\xca\x8b\xd4 t\xa7\xe6?'
tRp205
sg15
g11
(g13
S'\xa5\xee\\)@\x1f\xe7?'
tRp206
ssg6
g7
sa(dp207
g3
(dp208
S'k'
I40
sg5
I1000
sg6
g7
ssg8
(dp209
g10
g11
(g13
S'\xa1%GM"\x99\xe6?'
tRp210
sg15
g11
(g13
S'\x9c\xe4s(o\x11\xe7?'
tRp211
ssg6
g7
sa(dp212
g3
(dp213
S'k'
I41
sg5
I1000
sg6
g7
ssg8
(dp214
g10
g11
(g13
S'\xbd\x1a\xea\xb5\x88\x99\xe6?'
tRp215
sg15
g11
(g13
S'\xb5\xf0\xf6uD\x0c\xe7?'
tRp216
ssg6
g7
sa(dp217
g3
(dp218
S'k'
I42
sg5
I1000
sg6
g7
ssg8
(dp219
g10
g11
(g13
S'se\x13\xd4t\x98\xe6?'
tRp220
sg15
g11
(g13
S'A\xaa\xebY\x9f\x05\xe7?'
tRp221
ssg6
g7
sa(dp222
g3
(dp223
S'k'
I43
sg5
I1000
sg6
g7
ssg8
(dp224
g10
g11
(g13
S'\x05\xa2\x05\xc2\xc3\xa4\xe6?'
tRp225
sg15
g11
(g13
S'\x80\x87_\xc7\x99\x0f\xe7?'
tRp226
ssg6
g7
sa(dp227
g3
(dp228
S'k'
I44
sg5
I1000
sg6
g7
ssg8
(dp229
g10
g11
(g13
S'\x1a+V\x9e\xae\x9d\xe6?'
tRp230
sg15
g11
(g13
S'1\x13\xcc\xa8U\x05\xe7?'
tRp231
ssg6
g7
sa(dp232
g3
(dp233
S'k'
I45
sg5
I1000
sg6
g7
ssg8
(dp234
g10
g11
(g13
S'\xbb\x8c\xd0\x9a\x8a\xa0\xe6?'
tRp235
sg15
g11
(g13
S';\xe5w\x8e`\x07\xe7?'
tRp236
ssg6
g7
sa(dp237
g3
(dp238
S'k'
I46
sg5
I1000
sg6
g7
ssg8
(dp239
g10
g11
(g13
S'\x1d\xcf \xcb\xbf\x9a\xe6?'
tRp240
sg15
g11
(g13
S'\x90V.d\xce\xfd\xe6?'
tRp241
ssg6
g7
sa(dp242
g3
(dp243
S'k'
I47
sg5
I1000
sg6
g7
ssg8
(dp244
g10
g11
(g13
S'\x8f\xdf\x112Q\x9f\xe6?'
tRp245
sg15
g11
(g13
S'\xef\xfee2\xda\x05\xe7?'
tRp246
ssg6
g7
sa(dp247
g3
(dp248
S'k'
I48
sg5
I1000
sg6
g7
ssg8
(dp249
g10
g11
(g13
S'\\G\xa2\xaa8\x9f\xe6?'
tRp250
sg15
g11
(g13
S'T\xc8\xfd\x11\x84\xfd\xe6?'
tRp251
ssg6
g7
sa(dp252
g3
(dp253
S'k'
I49
sg5
I1000
sg6
g7
ssg8
(dp254
g10
g11
(g13
S')\xe0\xfc\xb8\xe4\xa0\xe6?'
tRp255
sg15
g11
(g13
S'\x87\xba\xc4S\x02\x02\xe7?'
tRp256
ssg6
g7
sa(dp257
g3
(dp258
S'k'
I50
sg5
I1000
sg6
g7
ssg8
(dp259
g10
g11
(g13
S'\xd1\xa0\x1a\xc0K\x9e\xe6?'
tRp260
sg15
g11
(g13
S';\xa9\x0c\x89\x9c\xf9\xe6?'
tRp261
ssg6
g7
sa(dp262
g3
(dp263
S'k'
I51
sg5
I1000
sg6
g7
ssg8
(dp264
g10
g11
(g13
S'\x9e%\xdf\xbe|\xae\xe6?'
tRp265
sg15
g11
(g13
S'\xb0c{w\xf3\x05\xe7?'
tRp266
ssg6
g7
sa(dp267
g3
(dp268
S'k'
I52
sg5
I1000
sg6
g7
ssg8
(dp269
g10
g11
(g13
S'\x92\x8f\xe1n\x1f\x90\xe6?'
tRp270
sg15
g11
(g13
S'\xe7\xf8\xff\xb4\x0e\xf0\xe6?'
tRp271
ssg6
g7
sa(dp272
g3
(dp273
S'k'
I53
sg5
I1000
sg6
g7
ssg8
(dp274
g10
g11
(g13
S'fm\xc9\x0b\xd7\xa1\xe6?'
tRp275
sg15
g11
(g13
S'lP\x0b\xd7\xcc\xfa\xe6?'
tRp276
ssg6
g7
sa(dp277
g3
(dp278
S'k'
I54
sg5
I1000
sg6
g7
ssg8
(dp279
g10
g11
(g13
S'\xafa\xbb\xf2h\xa4\xe6?'
tRp280
sg15
g11
(g13
S'\xd2\xbc75\xaf\xf9\xe6?'
tRp281
ssg6
g7
sa(dp282
g3
(dp283
S'k'
I55
sg5
I1000
sg6
g7
ssg8
(dp284
g10
g11
(g13
S'\x19\x04\x07p\xd4\xa1\xe6?'
tRp285
sg15
g11
(g13
S'\x9e\xa7\xc0\xa1\x98\xfc\xe6?'
tRp286
ssg6
g7
sa(dp287
g3
(dp288
S'k'
I56
sg5
I1000
sg6
g7
ssg8
(dp289
g10
g11
(g13
S'2\xe6h-J\xa2\xe6?'
tRp290
sg15
g11
(g13
S'\x9d\xd7\xe7b\xae\xf4\xe6?'
tRp291
ssg6
g7
sa(dp292
g3
(dp293
S'k'
I57
sg5
I1000
sg6
g7
ssg8
(dp294
g10
g11
(g13
S'o\xcfA\xf2*\xa6\xe6?'
tRp295
sg15
g11
(g13
S'\xf0`\x96fT\xf6\xe6?'
tRp296
ssg6
g7
sa(dp297
g3
(dp298
S'k'
I58
sg5
I1000
sg6
g7
ssg8
(dp299
g10
g11
(g13
S"\x8dw\xa5'r\xa2\xe6?"
tRp300
sg15
g11
(g13
S'\xf4\x00\x04\xb5\xbf\xee\xe6?'
tRp301
ssg6
g7
sa(dp302
g3
(dp303
S'k'
I59
sg5
I1000
sg6
g7
ssg8
(dp304
g10
g11
(g13
S'\xd2\x1f\x87[\x9f\x98\xe6?'
tRp305
sg15
g11
(g13
S'p\xcc\x91\xb4`\xe9\xe6?'
tRp306
ssg6
g7
sa(dp307
g3
(dp308
S'k'
I60
sg5
I1000
sg6
g7
ssg8
(dp309
g10
g11
(g13
S'z,t:\xb9\xa2\xe6?'
tRp310
sg15
g11
(g13
S'\xc8\x82/o~\xef\xe6?'
tRp311
ssg6
g7
sa(dp312
g3
(dp313
S'k'
I61
sg5
I1000
sg6
g7
ssg8
(dp314
g10
g11
(g13
S'\xba\n\x8c\xf8F\x9c\xe6?'
tRp315
sg15
g11
(g13
S'\xd2\xc9e\\\x85\xe5\xe6?'
tRp316
ssg6
g7
sa(dp317
g3
(dp318
S'k'
I62
sg5
I1000
sg6
g7
ssg8
(dp319
g10
g11
(g13
S'\xca\xff\x9c"1\x9a\xe6?'
tRp320
sg15
g11
(g13
S'R\x84\\Xh\xe9\xe6?'
tRp321
ssg6
g7
sa(dp322
g3
(dp323
S'k'
I63
sg5
I1000
sg6
g7
ssg8
(dp324
g10
g11
(g13
S'\xf8\xd4\xb2\xffK\xa0\xe6?'
tRp325
sg15
g11
(g13
S'\xf6Q\xdc\x83\xb4\xeb\xe6?'
tRp326
ssg6
g7
sa(dp327
g3
(dp328
S'k'
I64
sg5
I1000
sg6
g7
ssg8
(dp329
g10
g11
(g13
S'\xae\xfbi\xa2\xad\xa8\xe6?'
tRp330
sg15
g11
(g13
S'\x08\x8f\x02\xc3t\xf1\xe6?'
tRp331
ssg6
g7
sa(dp332
g3
(dp333
S'k'
I65
sg5
I1000
sg6
g7
ssg8
(dp334
g10
g11
(g13
S'\xd1b\xc3V\xfc\x9f\xe6?'
tRp335
sg15
g11
(g13
S'$\r\x13\x9a%\xe2\xe6?'
tRp336
ssg6
g7
sa(dp337
g3
(dp338
S'k'
I66
sg5
I1000
sg6
g7
ssg8
(dp339
g10
g11
(g13
S'aC\x9fM\xd8\xa5\xe6?'
tRp340
sg15
g11
(g13
S'\xb2\xf7\xb5\x99|\xec\xe6?'
tRp341
ssg6
g7
sa(dp342
g3
(dp343
S'k'
I67
sg5
I1000
sg6
g7
ssg8
(dp344
g10
g11
(g13
S'\xa3o8\xc6\xad\xa4\xe6?'
tRp345
sg15
g11
(g13
S']\xf9\xbdk\xd7\xe8\xe6?'
tRp346
ssg6
g7
sa(dp347
g3
(dp348
S'k'
I68
sg5
I1000
sg6
g7
ssg8
(dp349
g10
g11
(g13
S'@v\xd5\x9ed\xa6\xe6?'
tRp350
sg15
g11
(g13
S'\xfc\xac\xbd\xf8\xe0\xe9\xe6?'
tRp351
ssg6
g7
sa(dp352
g3
(dp353
S'k'
I69
sg5
I1000
sg6
g7
ssg8
(dp354
g10
g11
(g13
S'\r\xcf%\xfa|\x9f\xe6?'
tRp355
sg15
g11
(g13
S'-`[\x95K\xe5\xe6?'
tRp356
ssg6
g7
sa(dp357
g3
(dp358
S'k'
I70
sg5
I1000
sg6
g7
ssg8
(dp359
g10
g11
(g13
S'\x88\xcf\x84\x9a\x9c\xad\xe6?'
tRp360
sg15
g11
(g13
S'\xa8\xfa\x1b8\xac\xf2\xe6?'
tRp361
ssg6
g7
sa(dp362
g3
(dp363
S'k'
I71
sg5
I1000
sg6
g7
ssg8
(dp364
g10
g11
(g13
S'Z~\x969\x95\xa1\xe6?'
tRp365
sg15
g11
(g13
S'j\xf5\n2\x00\xde\xe6?'
tRp366
ssg6
g7
sa(dp367
g3
(dp368
S'k'
I72
sg5
I1000
sg6
g7
ssg8
(dp369
g10
g11
(g13
S'\x81\xb5\xee\xf5\x82\xa3\xe6?'
tRp370
sg15
g11
(g13
S'\xca\xb1-yC\xe4\xe6?'
tRp371
ssg6
g7
sa(dp372
g3
(dp373
S'k'
I73
sg5
I1000
sg6
g7
ssg8
(dp374
g10
g11
(g13
S'\xb0<Yd\xfc\x94\xe6?'
tRp375
sg15
g11
(g13
S'/5z\xed7\xd3\xe6?'
tRp376
ssg6
g7
sa(dp377
g3
(dp378
S'k'
I74
sg5
I1000
sg6
g7
ssg8
(dp379
g10
g11
(g13
S'\xf8\xe0\x95\x04\xeb\xa8\xe6?'
tRp380
sg15
g11
(g13
S'\xb5\x82\xb7\xf3\xae\xeb\xe6?'
tRp381
ssg6
g7
sa(dp382
g3
(dp383
S'k'
I75
sg5
I1000
sg6
g7
ssg8
(dp384
g10
g11
(g13
S'\x91,\xe9p\xcf\x9f\xe6?'
tRp385
sg15
g11
(g13
S'\xd6\x80\x00\xd4\x98\xdb\xe6?'
tRp386
ssg6
g7
sa(dp387
g3
(dp388
S'k'
I76
sg5
I1000
sg6
g7
ssg8
(dp389
g10
g11
(g13
S'\xfe\xd5\xd8\xd0P\xa7\xe6?'
tRp390
sg15
g11
(g13
S'\xfec\n\xcbQ\xe7\xe6?'
tRp391
ssg6
g7
sa(dp392
g3
(dp393
S'k'
I77
sg5
I1000
sg6
g7
ssg8
(dp394
g10
g11
(g13
S'\xe1q\xc9\xf5[\x98\xe6?'
tRp395
sg15
g11
(g13
S'\x98\x14\xd1\xe0[\xd3\xe6?'
tRp396
ssg6
g7
sa(dp397
g3
(dp398
S'k'
I78
sg5
I1000
sg6
g7
ssg8
(dp399
g10
g11
(g13
S'\x93\xa4\x92\x8f\xca\xa2\xe6?'
tRp400
sg15
g11
(g13
S'\xd8\x17o\x04B\xdd\xe6?'
tRp401
ssg6
g7
sa(dp402
g3
(dp403
S'k'
I79
sg5
I1000
sg6
g7
ssg8
(dp404
g10
g11
(g13
S'\x9b\xc0\xcf\x11\xfc\x9c\xe6?'
tRp405
sg15
g11
(g13
S'\xb0Q\x97\xef\x9d\xd7\xe6?'
tRp406
ssg6
g7
sa(dp407
g3
(dp408
S'k'
I80
sg5
I1000
sg6
g7
ssg8
(dp409
g10
g11
(g13
S'\x9b\xa8?\x7f\xdb\xa1\xe6?'
tRp410
sg15
g11
(g13
S'h\xa7\xbb\xe1\xe9\xda\xe6?'
tRp411
ssg6
g7
sa(dp412
g3
(dp413
S'k'
I81
sg5
I1000
sg6
g7
ssg8
(dp414
g10
g11
(g13
S'\xfbZ\xf1\xec\x80\xa2\xe6?'
tRp415
sg15
g11
(g13
S'T\xf8\xd7\x97\xa5\xdc\xe6?'
tRp416
ssg6
g7
sa(dp417
g3
(dp418
S'k'
I82
sg5
I1000
sg6
g7
ssg8
(dp419
g10
g11
(g13
S'\xea\xcapB\xdd\x9d\xe6?'
tRp420
sg15
g11
(g13
S'\xb5\x1aH\xd7\x81\xd5\xe6?'
tRp421
ssg6
g7
sa(dp422
g3
(dp423
S'k'
I83
sg5
I1000
sg6
g7
ssg8
(dp424
g10
g11
(g13
S'\xed\x86\x9eX\xca\x9e\xe6?'
tRp425
sg15
g11
(g13
S'L\xfe\x85\x9dc\xd6\xe6?'
tRp426
ssg6
g7
sa(dp427
g3
(dp428
S'k'
I84
sg5
I1000
sg6
g7
ssg8
(dp429
g10
g11
(g13
S'\xac\xf30f\x03\x9d\xe6?'
tRp430
sg15
g11
(g13
S'\xec\xed6}\xc2\xd4\xe6?'
tRp431
ssg6
g7
sa(dp432
g3
(dp433
S'k'
I85
sg5
I1000
sg6
g7
ssg8
(dp434
g10
g11
(g13
S'\x19\x9d\n\rz\x9f\xe6?'
tRp435
sg15
g11
(g13
S'liE\x1c\xdb\xd4\xe6?'
tRp436
ssg6
g7
sa(dp437
g3
(dp438
S'k'
I86
sg5
I1000
sg6
g7
ssg8
(dp439
g10
g11
(g13
S'N\xcb\xd8\xcd\xe9\x9d\xe6?'
tRp440
sg15
g11
(g13
S'w\x9d\xea\xfd|\xd5\xe6?'
tRp441
ssg6
g7
sa(dp442
g3
(dp443
S'k'
I87
sg5
I1000
sg6
g7
ssg8
(dp444
g10
g11
(g13
S'\x96\xd2\xfc\xc5\xb7\xb4\xe6?'
tRp445
sg15
g11
(g13
S'-@\xa1\x0c\x03\xea\xe6?'
tRp446
ssg6
g7
sa(dp447
g3
(dp448
S'k'
I88
sg5
I1000
sg6
g7
ssg8
(dp449
g10
g11
(g13
S'\xb8\x93\x1fM\x0f\xa0\xe6?'
tRp450
sg15
g11
(g13
S'O\xb1mr\xbd\xd2\xe6?'
tRp451
ssg6
g7
sa(dp452
g3
(dp453
S'k'
I89
sg5
I1000
sg6
g7
ssg8
(dp454
g10
g11
(g13
S'\xf1O@\xfe\xd6\xa5\xe6?'
tRp455
sg15
g11
(g13
S'\xeb\x8e0V\xef\xd6\xe6?'
tRp456
ssg6
g7
sa(dp457
g3
(dp458
S'k'
I90
sg5
I1000
sg6
g7
ssg8
(dp459
g10
g11
(g13
S'\xc1\x80)\xc8r\x91\xe6?'
tRp460
sg15
g11
(g13
S'X\xb0\x82\xb4X\xc6\xe6?'
tRp461
ssg6
g7
sa(dp462
g3
(dp463
S'k'
I91
sg5
I1000
sg6
g7
ssg8
(dp464
g10
g11
(g13
S'\x0e\xfd\xaf\xb9\xb8\x9c\xe6?'
tRp465
sg15
g11
(g13
S'>\xca\xf3\xc6\x9a\xcc\xe6?'
tRp466
ssg6
g7
sa(dp467
g3
(dp468
S'k'
I92
sg5
I1000
sg6
g7
ssg8
(dp469
g10
g11
(g13
S'\xb5\x97\x93\x8e\xe4\xa0\xe6?'
tRp470
sg15
g11
(g13
S'\xd3\x04-\xee\xc8\xd0\xe6?'
tRp471
ssg6
g7
sa(dp472
g3
(dp473
S'k'
I93
sg5
I1000
sg6
g7
ssg8
(dp474
g10
g11
(g13
S'\xe4\xe4$\xfeM\x9d\xe6?'
tRp475
sg15
g11
(g13
S'\xd4\x8c\x05\x0e<\xd1\xe6?'
tRp476
ssg6
g7
sa(dp477
g3
(dp478
S'k'
I94
sg5
I1000
sg6
g7
ssg8
(dp479
g10
g11
(g13
S'\x90^\xa3\x99\xc8\x98\xe6?'
tRp480
sg15
g11
(g13
S'\xac\xdfB\xc1\xa4\xcb\xe6?'
tRp481
ssg6
g7
sa(dp482
g3
(dp483
S'k'
I95
sg5
I1000
sg6
g7
ssg8
(dp484
g10
g11
(g13
S'\xade\xdb\x98\xb5\x9d\xe6?'
tRp485
sg15
g11
(g13
S'\xb7\x1cW\xbc\x8a\xce\xe6?'
tRp486
ssg6
g7
sa(dp487
g3
(dp488
S'k'
I96
sg5
I1000
sg6
g7
ssg8
(dp489
g10
g11
(g13
S'I\x87\xf0\x15\xf4\xa3\xe6?'
tRp490
sg15
g11
(g13
S'\x03\x0f6\xc7\xed\xd2\xe6?'
tRp491
ssg6
g7
sa(dp492
g3
(dp493
S'k'
I97
sg5
I1000
sg6
g7
ssg8
(dp494
g10
g11
(g13
S'\xcc\xa0n\xc6\xeb\xa4\xe6?'
tRp495
sg15
g11
(g13
S'ja\xa0\xe3\xd3\xd2\xe6?'
tRp496
ssg6
g7
sa(dp497
g3
(dp498
S'k'
I98
sg5
I1000
sg6
g7
ssg8
(dp499
g10
g11
(g13
S'\xf0\xb6\xd2\xbcu\xa8\xe6?'
tRp500
sg15
g11
(g13
S'w\xd9\xbf\xf4\xac\xd9\xe6?'
tRp501
ssg6
g7
sa(dp502
g3
(dp503
S'k'
I99
sg5
I1000
sg6
g7
ssg8
(dp504
g10
g11
(g13
S'p\x9c\n\x1b+\xa9\xe6?'
tRp505
sg15
g11
(g13
S"3d'\x9a(\xd4\xe6?"
tRp506
ssg6
g7
sa(dp507
g3
(dp508
S'k'
I100
sg5
I1000
sg6
g7
ssg8
(dp509
g10
g11
(g13
S'\xc89\xdc\x15>\x9e\xe6?'
tRp510
sg15
g11
(g13
S'\xf7\xa4\xf4R\x83\xcd\xe6?'
tRp511
ssg6
g7
sa(dp512
g3
(dp513
S'k'
I100
sg5
I1000
sg6
g7
ssg8
(dp514
g10
g11
(g13
S'=\x1cm?w\x9f\xe6?'
tRp515
sg15
g11
(g13
S'RP\x12\xf3\x0f\xcc\xe6?'
tRp516
ssg6
g7
sa(dp517
g3
(dp518
S'k'
I200
sg5
I1000
sg6
g7
ssg8
(dp519
g10
g11
(g13
S'M\xc4}\xa88\x9d\xe6?'
tRp520
sg15
g11
(g13
S'\xe1\xa6\xa1\xb9\x91\xb2\xe6?'
tRp521
ssg6
g7
sa(dp522
g3
(dp523
S'k'
I300
sg5
I1000
sg6
g7
ssg8
(dp524
g10
g11
(g13
S'2:U\x08\xd5\x9e\xe6?'
tRp525
sg15
g11
(g13
S'O\t\xdf[v\xad\xe6?'
tRp526
ssg6
g7
sa(dp527
g3
(dp528
S'k'
I400
sg5
I1000
sg6
g7
ssg8
(dp529
g10
g11
(g13
S'\xec\x90\x88A\xb2\x9d\xe6?'
tRp530
sg15
g11
(g13
S'~\xe7\xd4\xd8\xcc\xa8\xe6?'
tRp531
ssg6
g7
sa(dp532
g3
(dp533
S'k'
I500
sg5
I1000
sg6
g7
ssg8
(dp534
g10
g11
(g13
S'\xbc\xe2\xfa\xc6S\x9c\xe6?'
tRp535
sg15
g11
(g13
S'\xa3\xd8ORL\xa5\xe6?'
tRp536
ssg6
g7
sa(dp537
g3
(dp538
S'k'
I600
sg5
I1000
sg6
g7
ssg8
(dp539
g10
g11
(g13
S'LK\xa8\x12\x8e\x9f\xe6?'
tRp540
sg15
g11
(g13
S'\xbb(C\x9c\x90\xa6\xe6?'
tRp541
ssg6
g7
sa(dp542
g3
(dp543
S'k'
I700
sg5
I1000
sg6
g7
ssg8
(dp544
g10
g11
(g13
S'\x91\x80\xe4\x87&\x9e\xe6?'
tRp545
sg15
g11
(g13
S'nBn\x0c<\xa4\xe6?'
tRp546
ssg6
g7
sa(dp547
g3
(dp548
S'k'
I800
sg5
I1000
sg6
g7
ssg8
(dp549
g10
g11
(g13
S'\x8b\xd0\xac\xb0\xb1\x9c\xe6?'
tRp550
sg15
g11
(g13
S'\xb0\xc5Fa#\xa2\xe6?'
tRp551
ssg6
g7
sa(dp552
g3
(dp553
S'k'
I900
sg5
I1000
sg6
g7
ssg8
(dp554
g10
g11
(g13
S'c\xc0G\xb1E\xa0\xe6?'
tRp555
sg15
g11
(g13
S'\xc3(\x10\xdc\x8d\xa5\xe6?'
tRp556
ssg6
g7
sa(dp557
g3
(dp558
S'k'
I907
sg5
I1000
sg6
g7
ssg8
(dp559
g10
g11
(g13
S'\x89\xf5"\xd9,\x9f\xe6?'
tRp560
sg15
g11
(g13
S'}V\x98\xb41\xa4\xe6?'
tRp561
ssg6
g7
sa(dp562
g3
(dp563
S'k'
I1
sg5
I1000
sg6
S'ego-facebook'
p564
ssg8
(dp565
g10
g11
(g13
S'\x10G\xc7\x85\x99T\xe1?'
tRp566
sg15
g11
(g13
S'\xdb\x9a\x15\xe4\xc4\xa7\xf1?'
tRp567
ssg6
g564
sa(dp568
g3
(dp569
S'k'
I2
sg5
I1000
sg6
g564
ssg8
(dp570
g10
g11
(g13
S'#\xb5A\xf6_]\xe1?'
tRp571
sg15
g11
(g13
S'w\xc4\x95\xff\x11p\xed?'
tRp572
ssg6
g564
sa(dp573
g3
(dp574
S'k'
I3
sg5
I1000
sg6
g564
ssg8
(dp575
g10
g11
(g13
S'3\xb6\x0b#&Z\xe1?'
tRp576
sg15
g11
(g13
S'qN\xa8s\x10r\xea?'
tRp577
ssg6
g564
sa(dp578
g3
(dp579
S'k'
I4
sg5
I1000
sg6
g564
ssg8
(dp580
g10
g11
(g13
S'\x1e/dD%8\xe1?'
tRp581
sg15
g11
(g13
S'\xc4\x1a\xcf\xeb\x04\x14\xe9?'
tRp582
ssg6
g564
sa(dp583
g3
(dp584
S'k'
I5
sg5
I1000
sg6
g564
ssg8
(dp585
g10
g11
(g13
S'-N\x95!\xffK\xe1?'
tRp586
sg15
g11
(g13
S'\x10*Gk\xf5\x06\xe8?'
tRp587
ssg6
g564
sa(dp588
g3
(dp589
S'k'
I6
sg5
I1000
sg6
g564
ssg8
(dp590
g10
g11
(g13
S'\xb7\xbd\xff\xfdnu\xe1?'
tRp591
sg15
g11
(g13
S'\xa7!\xe3\x99\xcfX\xe7?'
tRp592
ssg6
g564
sa(dp593
g3
(dp594
S'k'
I7
sg5
I1000
sg6
g564
ssg8
(dp595
g10
g11
(g13
S'o\xd4\xf6\xf6\xa1E\xe1?'
tRp596
sg15
g11
(g13
S'\xcb\xdf\x88 \xffZ\xe6?'
tRp597
ssg6
g564
sa(dp598
g3
(dp599
S'k'
I8
sg5
I1000
sg6
g564
ssg8
(dp600
g10
g11
(g13
S'\x03\xa7{\xc1yI\xe1?'
tRp601
sg15
g11
(g13
S'!\xf4Npa9\xe6?'
tRp602
ssg6
g564
sa(dp603
g3
(dp604
S'k'
I9
sg5
I1000
sg6
g564
ssg8
(dp605
g10
g11
(g13
S'\xf7G\x12\xa9\xa4E\xe1?'
tRp606
sg15
g11
(g13
S'\xf2[@(\x82\xcd\xe5?'
tRp607
ssg6
g564
sa(dp608
g3
(dp609
S'k'
I10
sg5
I1000
sg6
g564
ssg8
(dp610
g10
g11
(g13
S'9I\x8e\xdf\xdfR\xe1?'
tRp611
sg15
g11
(g13
S'J\x8eE\xe5\xc9\x81\xe5?'
tRp612
ssg6
g564
sa(dp613
g3
(dp614
S'k'
I11
sg5
I1000
sg6
g564
ssg8
(dp615
g10
g11
(g13
S'\xf3\xfck\x05\x18@\xe1?'
tRp616
sg15
g11
(g13
S'\x87p5\xce\xc0\x1f\xe5?'
tRp617
ssg6
g564
sa(dp618
g3
(dp619
S'k'
I12
sg5
I1000
sg6
g564
ssg8
(dp620
g10
g11
(g13
S'\xa0\x06\xd8T\x03@\xe1?'
tRp621
sg15
g11
(g13
S'u\xe3Q\x91{\xe5\xe4?'
tRp622
ssg6
g564
sa(dp623
g3
(dp624
S'k'
I13
sg5
I1000
sg6
g564
ssg8
(dp625
g10
g11
(g13
S'\xac\\\xbd\xa9:N\xe1?'
tRp626
sg15
g11
(g13
S'\xe8\x17WG\x13\xc5\xe4?'
tRp627
ssg6
g564
sa(dp628
g3
(dp629
S'k'
I14
sg5
I1000
sg6
g564
ssg8
(dp630
g10
g11
(g13
S'\xd5\xe2#^\xcdD\xe1?'
tRp631
sg15
g11
(g13
S'P8\xa3\xa1\xaf\x8e\xe4?'
tRp632
ssg6
g564
sa(dp633
g3
(dp634
S'k'
I15
sg5
I1000
sg6
g564
ssg8
(dp635
g10
g11
(g13
S'N\xa7\x1e3\xf36\xe1?'
tRp636
sg15
g11
(g13
S'^\xd3\xb0\\hj\xe4?'
tRp637
ssg6
g564
sa(dp638
g3
(dp639
S'k'
I16
sg5
I1000
sg6
g564
ssg8
(dp640
g10
g11
(g13
S'>\xeec\xda\xb1A\xe1?'
tRp641
sg15
g11
(g13
S'\x95\xdf7\xb3\t@\xe4?'
tRp642
ssg6
g564
sa(dp643
g3
(dp644
S'k'
I17
sg5
I1000
sg6
g564
ssg8
(dp645
g10
g11
(g13
S'B\xf8\xc9\xff\xb7C\xe1?'
tRp646
sg15
g11
(g13
S'\xfd\x8aaE\xbb-\xe4?'
tRp647
ssg6
g564
sa(dp648
g3
(dp649
S'k'
I18
sg5
I1000
sg6
g564
ssg8
(dp650
g10
g11
(g13
S'\nm\x7f\xe4E:\xe1?'
tRp651
sg15
g11
(g13
S'\xf3\xe7{\x89\xec\x05\xe4?'
tRp652
ssg6
g564
sa(dp653
g3
(dp654
S'k'
I19
sg5
I1000
sg6
g564
ssg8
(dp655
g10
g11
(g13
S'\x97\x19q\xec,?\xe1?'
tRp656
sg15
g11
(g13
S'\xc6\x0b\x9a\xb7\xaf\x03\xe4?'
tRp657
ssg6
g564
sa(dp658
g3
(dp659
S'k'
I20
sg5
I1000
sg6
g564
ssg8
(dp660
g10
g11
(g13
S'\xcdGt\x95!F\xe1?'
tRp661
sg15
g11
(g13
S'\x91\x94\x1c\x1a(\xd7\xe3?'
tRp662
ssg6
g564
sa(dp663
g3
(dp664
S'k'
I21
sg5
I1000
sg6
g564
ssg8
(dp665
g10
g11
(g13
S'\xf7\xfe\x9bP\xd9B\xe1?'
tRp666
sg15
g11
(g13
S'\xb8\x80\xd9\xd6\x1b\xba\xe3?'
tRp667
ssg6
g564
sa(dp668
g3
(dp669
S'k'
I22
sg5
I1000
sg6
g564
ssg8
(dp670
g10
g11
(g13
S'\xccE}\x80\x06?\xe1?'
tRp671
sg15
g11
(g13
S'Q\xfe\xba\x18\xac\xaf\xe3?'
tRp672
ssg6
g564
sa(dp673
g3
(dp674
S'k'
I23
sg5
I1000
sg6
g564
ssg8
(dp675
g10
g11
(g13
S'\xb6\x12\xa8\xe2\xcc;\xe1?'
tRp676
sg15
g11
(g13
S'k\xf2r\x08\xb5\xa5\xe3?'
tRp677
ssg6
g564
sa(dp678
g3
(dp679
S'k'
I24
sg5
I1000
sg6
g564
ssg8
(dp680
g10
g11
(g13
S'\xfc3\xb1\xce\x99H\xe1?'
tRp681
sg15
g11
(g13
S'aB\xb7 E\xa1\xe3?'
tRp682
ssg6
g564
sa(dp683
g3
(dp684
S'k'
I25
sg5
I1000
sg6
g564
ssg8
(dp685
g10
g11
(g13
S'Y\xc7\xdf?4;\xe1?'
tRp686
sg15
g11
(g13
S'\x83k\xb0"\x04\x90\xe3?'
tRp687
ssg6
g564
sa(dp688
g3
(dp689
S'k'
I26
sg5
I1000
sg6
g564
ssg8
(dp690
g10
g11
(g13
S'\xcc\xb2n\xdb\xec<\xe1?'
tRp691
sg15
g11
(g13
S'\xae\xe4\xde\x90\xd1\x80\xe3?'
tRp692
ssg6
g564
sa(dp693
g3
(dp694
S'k'
I27
sg5
I1000
sg6
g564
ssg8
(dp695
g10
g11
(g13
S'K\x00\xe2\x88!@\xe1?'
tRp696
sg15
g11
(g13
S'\x11,Sl&P\xe3?'
tRp697
ssg6
g564
sa(dp698
g3
(dp699
S'k'
I28
sg5
I1000
sg6
g564
ssg8
(dp700
g10
g11
(g13
S'\x8a{R\x8bs8\xe1?'
tRp701
sg15
g11
(g13
S'\xe5\xf5\x00"\x08N\xe3?'
tRp702
ssg6
g564
sa(dp703
g3
(dp704
S'k'
I29
sg5
I1000
sg6
g564
ssg8
(dp705
g10
g11
(g13
S'\xcbG\x9a\x90\xfe8\xe1?'
tRp706
sg15
g11
(g13
S'\x91b\xc3\x90*Y\xe3?'
tRp707
ssg6
g564
sa(dp708
g3
(dp709
S'k'
I30
sg5
I1000
sg6
g564
ssg8
(dp710
g10
g11
(g13
S'P\x9b\x80\x96s:\xe1?'
tRp711
sg15
g11
(g13
S'\xec\xd6\x17%\xd9C\xe3?'
tRp712
ssg6
g564
sa(dp713
g3
(dp714
S'k'
I31
sg5
I1000
sg6
g564
ssg8
(dp715
g10
g11
(g13
S'\xc0{Q\xc1\x116\xe1?'
tRp716
sg15
g11
(g13
S'lm~\xa6\xe4B\xe3?'
tRp717
ssg6
g564
sa(dp718
g3
(dp719
S'k'
I32
sg5
I1000
sg6
g564
ssg8
(dp720
g10
g11
(g13
S'\xa4\x9c\x1d\xea\xab@\xe1?'
tRp721
sg15
g11
(g13
S'^\xa7\xda\xbc\xd6B\xe3?'
tRp722
ssg6
g564
sa(dp723
g3
(dp724
S'k'
I33
sg5
I1000
sg6
g564
ssg8
(dp725
g10
g11
(g13
S'\xd1(\xc7G\x04A\xe1?'
tRp726
sg15
g11
(g13
S'\xb5\xa1s\x1fr*\xe3?'
tRp727
ssg6
g564
sa(dp728
g3
(dp729
S'k'
I34
sg5
I1000
sg6
g564
ssg8
(dp730
g10
g11
(g13
S'\x86)\xbcC\xbf@\xe1?'
tRp731
sg15
g11
(g13
S'\xb5\x7f\xbb\xc6\x99\x16\xe3?'
tRp732
ssg6
g564
sa(dp733
g3
(dp734
S'k'
I35
sg5
I1000
sg6
g564
ssg8
(dp735
g10
g11
(g13
S'\x19T\xa7\xe5\xa08\xe1?'
tRp736
sg15
g11
(g13
S'`\xa9\xa6%I\x1e\xe3?'
tRp737
ssg6
g564
sa(dp738
g3
(dp739
S'k'
I36
sg5
I1000
sg6
g564
ssg8
(dp740
g10
g11
(g13
S"\x91'\xb3\t\xeaE\xe1?"
tRp741
sg15
g11
(g13
S'\xb5\xf2<g\xd7\r\xe3?'
tRp742
ssg6
g564
sa(dp743
g3
(dp744
S'k'
I37
sg5
I1000
sg6
g564
ssg8
(dp745
g10
g11
(g13
S'\x80\xee\x99\x12\xff;\xe1?'
tRp746
sg15
g11
(g13
S'\x07h9/\xaf\xff\xe2?'
tRp747
ssg6
g564
sa(dp748
g3
(dp749
S'k'
I38
sg5
I1000
sg6
g564
ssg8
(dp750
g10
g11
(g13
S' \xf5_\xfd\xa7:\xe1?'
tRp751
sg15
g11
(g13
S'F\x06\xb7\xc8\xbd\xf3\xe2?'
tRp752
ssg6
g564
sa(dp753
g3
(dp754
S'k'
I39
sg5
I1000
sg6
g564
ssg8
(dp755
g10
g11
(g13
S'\x91\xf6+II@\xe1?'
tRp756
sg15
g11
(g13
S'}\x94\xb7P\x15\xfb\xe2?'
tRp757
ssg6
g564
sa(dp758
g3
(dp759
S'k'
I40
sg5
I1000
sg6
g564
ssg8
(dp760
g10
g11
(g13
S'\xc9&\xbe!2:\xe1?'
tRp761
sg15
g11
(g13
S'\xa8\x1app\xd1\xd2\xe2?'
tRp762
ssg6
g564
sa(dp763
g3
(dp764
S'k'
I41
sg5
I1000
sg6
g564
ssg8
(dp765
g10
g11
(g13
S'J\xae\x1dGs=\xe1?'
tRp766
sg15
g11
(g13
S'\x8bj\\\x88\x8c\xe6\xe2?'
tRp767
ssg6
g564
sa(dp768
g3
(dp769
S'k'
I42
sg5
I1000
sg6
g564
ssg8
(dp770
g10
g11
(g13
S'y2\xbf\x88\xac6\xe1?'
tRp771
sg15
g11
(g13
S'f4\xe5o\xaf\xd2\xe2?'
tRp772
ssg6
g564
sa(dp773
g3
(dp774
S'k'
I43
sg5
I1000
sg6
g564
ssg8
(dp775
g10
g11
(g13
S'e\x1c\xb1\x16\xfa;\xe1?'
tRp776
sg15
g11
(g13
S'C\xb6\x93\x84\x97\xd2\xe2?'
tRp777
ssg6
g564
sa(dp778
g3
(dp779
S'k'
I44
sg5
I1000
sg6
g564
ssg8
(dp780
g10
g11
(g13
S'\x16#d}4J\xe1?'
tRp781
sg15
g11
(g13
S'xu\x96;P\xd7\xe2?'
tRp782
ssg6
g564
sa(dp783
g3
(dp784
S'k'
I45
sg5
I1000
sg6
g564
ssg8
(dp785
g10
g11
(g13
S'\xf7\xb4\xe3\xf6\x82>\xe1?'
tRp786
sg15
g11
(g13
S'3}\x0f\xf7\n\xcf\xe2?'
tRp787
ssg6
g564
sa(dp788
g3
(dp789
S'k'
I46
sg5
I1000
sg6
g564
ssg8
(dp790
g10
g11
(g13
S'9\xd626L:\xe1?'
tRp791
sg15
g11
(g13
S'&\xb9\xfd\xf6\x14\xbe\xe2?'
tRp792
ssg6
g564
sa(dp793
g3
(dp794
S'k'
I47
sg5
I1000
sg6
g564
ssg8
(dp795
g10
g11
(g13
S'\x0cklmF;\xe1?'
tRp796
sg15
g11
(g13
S':\xcat\xb3\x89\xb7\xe2?'
tRp797
ssg6
g564
sa(dp798
g3
(dp799
S'k'
I48
sg5
I1000
sg6
g564
ssg8
(dp800
g10
g11
(g13
S'\x15Y\xeb\xebYA\xe1?'
tRp801
sg15
g11
(g13
S'\x15QJ\xd8\xee\xd0\xe2?'
tRp802
ssg6
g564
sa(dp803
g3
(dp804
S'k'
I49
sg5
I1000
sg6
g564
ssg8
(dp805
g10
g11
(g13
S'\xe4\x8a\xa1\x0e\xb89\xe1?'
tRp806
sg15
g11
(g13
S'\xe7I\x9b\xa4\xac\xb5\xe2?'
tRp807
ssg6
g564
sa(dp808
g3
(dp809
S'k'
I50
sg5
I1000
sg6
g564
ssg8
(dp810
g10
g11
(g13
S'\xceR\xfa\xad\x90B\xe1?'
tRp811
sg15
g11
(g13
S'\x1c\xa6\x84\x1dv\xbf\xe2?'
tRp812
ssg6
g564
sa(dp813
g3
(dp814
S'k'
I51
sg5
I1000
sg6
g564
ssg8
(dp815
g10
g11
(g13
S'\x08m\x1324;\xe1?'
tRp816
sg15
g11
(g13
S'\xddc\xd2\x1b\xc5\xb2\xe2?'
tRp817
ssg6
g564
sa(dp818
g3
(dp819
S'k'
I52
sg5
I1000
sg6
g564
ssg8
(dp820
g10
g11
(g13
S'}\xec\xce\x0c\x057\xe1?'
tRp821
sg15
g11
(g13
S'\x17+\xf2Y\x0f\xaa\xe2?'
tRp822
ssg6
g564
sa(dp823
g3
(dp824
S'k'
I53
sg5
I1000
sg6
g564
ssg8
(dp825
g10
g11
(g13
S'\xc7\xf0\xdb#ZH\xe1?'
tRp826
sg15
g11
(g13
S'\xc3\xd4\xa3\r3\xaa\xe2?'
tRp827
ssg6
g564
sa(dp828
g3
(dp829
S'k'
I54
sg5
I1000
sg6
g564
ssg8
(dp830
g10
g11
(g13
S'\xb3\x07\x01H\xa2D\xe1?'
tRp831
sg15
g11
(g13
S'\xffM\xaa\x1f\x19\xa0\xe2?'
tRp832
ssg6
g564
sa(dp833
g3
(dp834
S'k'
I55
sg5
I1000
sg6
g564
ssg8
(dp835
g10
g11
(g13
S'o\xe1|[\xee=\xe1?'
tRp836
sg15
g11
(g13
S'\x9dIHtv\x98\xe2?'
tRp837
ssg6
g564
sa(dp838
g3
(dp839
S'k'
I56
sg5
I1000
sg6
g564
ssg8
(dp840
g10
g11
(g13
S'T:\x89#\x87A\xe1?'
tRp841
sg15
g11
(g13
S'\xd2\xd4\xc6\x16\x9a\x95\xe2?'
tRp842
ssg6
g564
sa(dp843
g3
(dp844
S'k'
I57
sg5
I1000
sg6
g564
ssg8
(dp845
g10
g11
(g13
S'H\x1a\x95Tj7\xe1?'
tRp846
sg15
g11
(g13
S'W\xc13\xea[\x88\xe2?'
tRp847
ssg6
g564
sa(dp848
g3
(dp849
S'k'
I58
sg5
I1000
sg6
g564
ssg8
(dp850
g10
g11
(g13
S'\xf7\xe7\xf5\x1dUH\xe1?'
tRp851
sg15
g11
(g13
S'c\xb4\x1a\xef\xad\x97\xe2?'
tRp852
ssg6
g564
sa(dp853
g3
(dp854
S'k'
I59
sg5
I1000
sg6
g564
ssg8
(dp855
g10
g11
(g13
S'\x07Yt\x84\xcfL\xe1?'
tRp856
sg15
g11
(g13
S'\xcam\xaf${\x8a\xe2?'
tRp857
ssg6
g564
sa(dp858
g3
(dp859
S'k'
I60
sg5
I1000
sg6
g564
ssg8
(dp860
g10
g11
(g13
S'm\xa7\xc7\x9c\xd58\xe1?'
tRp861
sg15
g11
(g13
S'o\xae\xd3\x7f@\x81\xe2?'
tRp862
ssg6
g564
sa(dp863
g3
(dp864
S'k'
I61
sg5
I1000
sg6
g564
ssg8
(dp865
g10
g11
(g13
S'e\x17\x80\x1a\x1d<\xe1?'
tRp866
sg15
g11
(g13
S'\xaf&\x0e\xb8\xc5s\xe2?'
tRp867
ssg6
g564
sa(dp868
g3
(dp869
S'k'
I62
sg5
I1000
sg6
g564
ssg8
(dp870
g10
g11
(g13
S'\xc6\xa3\x0bXs8\xe1?'
tRp871
sg15
g11
(g13
S'_\x81e\xf8\xe0\x80\xe2?'
tRp872
ssg6
g564
sa(dp873
g3
(dp874
S'k'
I63
sg5
I1000
sg6
g564
ssg8
(dp875
g10
g11
(g13
S'!\x94\x03\xf6A>\xe1?'
tRp876
sg15
g11
(g13
S'\x8b\xbf4#8\x84\xe2?'
tRp877
ssg6
g564
sa(dp878
g3
(dp879
S'k'
I64
sg5
I1000
sg6
g564
ssg8
(dp880
g10
g11
(g13
S'\xe6\xa4\xa3\xe0\xd89\xe1?'
tRp881
sg15
g11
(g13
S'F\x85\xe9\x1a\xdbq\xe2?'
tRp882
ssg6
g564
sa(dp883
g3
(dp884
S'k'
I65
sg5
I1000
sg6
g564
ssg8
(dp885
g10
g11
(g13
S'\x15\x1b4\x16\x19B\xe1?'
tRp886
sg15
g11
(g13
S'\x08\xaf\xd7\x93\xd3t\xe2?'
tRp887
ssg6
g564
sa(dp888
g3
(dp889
S'k'
I66
sg5
I1000
sg6
g564
ssg8
(dp890
g10
g11
(g13
S'\xac"\xdaQ\xe06\xe1?'
tRp891
sg15
g11
(g13
S'`\xd8\xbe\xa0\x87x\xe2?'
tRp892
ssg6
g564
sa(dp893
g3
(dp894
S'k'
I67
sg5
I1000
sg6
g564
ssg8
(dp895
g10
g11
(g13
S'_\xef\xe2\x94\xea9\xe1?'
tRp896
sg15
g11
(g13
S'A\x9ec\\\x80q\xe2?'
tRp897
ssg6
g564
sa(dp898
g3
(dp899
S'k'
I68
sg5
I1000
sg6
g564
ssg8
(dp900
g10
g11
(g13
S'E\xdc\xfa9\xf9?\xe1?'
tRp901
sg15
g11
(g13
S'\xc7\x1b\xb3o\x05k\xe2?'
tRp902
ssg6
g564
sa(dp903
g3
(dp904
S'k'
I69
sg5
I1000
sg6
g564
ssg8
(dp905
g10
g11
(g13
S'Ly\xad \x908\xe1?'
tRp906
sg15
g11
(g13
S'~\xb9K{co\xe2?'
tRp907
ssg6
g564
sa(dp908
g3
(dp909
S'k'
I70
sg5
I1000
sg6
g564
ssg8
(dp910
g10
g11
(g13
S'~?yY\xee<\xe1?'
tRp911
sg15
g11
(g13
S'g\x12\xdf\xbf\xbaj\xe2?'
tRp912
ssg6
g564
sa(dp913
g3
(dp914
S'k'
I71
sg5
I1000
sg6
g564
ssg8
(dp915
g10
g11
(g13
S'M(\x8c\x11\x979\xe1?'
tRp916
sg15
g11
(g13
S'\xe7iJ\x031_\xe2?'
tRp917
ssg6
g564
sa(dp918
g3
(dp919
S'k'
I72
sg5
I1000
sg6
g564
ssg8
(dp920
g10
g11
(g13
S'6[\xbc\xdf`7\xe1?'
tRp921
sg15
g11
(g13
S'\x8bM-j\tf\xe2?'
tRp922
ssg6
g564
sa(dp923
g3
(dp924
S'k'
I73
sg5
I1000
sg6
g564
ssg8
(dp925
g10
g11
(g13
S'\xc9/\xf8\x97_7\xe1?'
tRp926
sg15
g11
(g13
S'\xaat\xb0\xbd\xb6`\xe2?'
tRp927
ssg6
g564
sa(dp928
g3
(dp929
S'k'
I74
sg5
I1000
sg6
g564
ssg8
(dp930
g10
g11
(g13
S'\x04\xbc\x99u\x07;\xe1?'
tRp931
sg15
g11
(g13
S'3\xf3T\xd4\x84_\xe2?'
tRp932
ssg6
g564
sa(dp933
g3
(dp934
S'k'
I75
sg5
I1000
sg6
g564
ssg8
(dp935
g10
g11
(g13
S'R9\xb0K&=\xe1?'
tRp936
sg15
g11
(g13
S'\xfa)\xfc\x08\xbd]\xe2?'
tRp937
ssg6
g564
sa(dp938
g3
(dp939
S'k'
I76
sg5
I1000
sg6
g564
ssg8
(dp940
g10
g11
(g13
S'S\x84\xb9i^6\xe1?'
tRp941
sg15
g11
(g13
S'\xdb\x89\x01\x16\xceN\xe2?'
tRp942
ssg6
g564
sa(dp943
g3
(dp944
S'k'
I77
sg5
I1000
sg6
g564
ssg8
(dp945
g10
g11
(g13
S't\x11z\xf6\x167\xe1?'
tRp946
sg15
g11
(g13
S'\x16E\xac0\xe7[\xe2?'
tRp947
ssg6
g564
sa(dp948
g3
(dp949
S'k'
I78
sg5
I1000
sg6
g564
ssg8
(dp950
g10
g11
(g13
S'\xf0\xaf\x90\xe2T;\xe1?'
tRp951
sg15
g11
(g13
S'LM\xb4(\x93P\xe2?'
tRp952
ssg6
g564
sa(dp953
g3
(dp954
S'k'
I79
sg5
I1000
sg6
g564
ssg8
(dp955
g10
g11
(g13
S'\xb3\xcbr\xab\x93?\xe1?'
tRp956
sg15
g11
(g13
S'\xf1BO\x8b\x0eR\xe2?'
tRp957
ssg6
g564
sa(dp958
g3
(dp959
S'k'
I80
sg5
I1000
sg6
g564
ssg8
(dp960
g10
g11
(g13
S'\x8a\xcb_\x80\xae8\xe1?'
tRp961
sg15
g11
(g13
S'V\xfd\xf32\xf3E\xe2?'
tRp962
ssg6
g564
sa(dp963
g3
(dp964
S'k'
I81
sg5
I1000
sg6
g564
ssg8
(dp965
g10
g11
(g13
S'la\xce\xf7c>\xe1?'
tRp966
sg15
g11
(g13
S'\r\x91qS9S\xe2?'
tRp967
ssg6
g564
sa(dp968
g3
(dp969
S'k'
I82
sg5
I1000
sg6
g564
ssg8
(dp970
g10
g11
(g13
S'6\xe5\xf2\x03&:\xe1?'
tRp971
sg15
g11
(g13
S'N+\x89\xa6\xb0O\xe2?'
tRp972
ssg6
g564
sa(dp973
g3
(dp974
S'k'
I83
sg5
I1000
sg6
g564
ssg8
(dp975
g10
g11
(g13
S'\x11ZS\xd3F7\xe1?'
tRp976
sg15
g11
(g13
S'\xf4\xbe\xd7\xbe\x9a@\xe2?'
tRp977
ssg6
g564
sa(dp978
g3
(dp979
S'k'
I84
sg5
I1000
sg6
g564
ssg8
(dp980
g10
g11
(g13
S'\xe6b\x9c\x068:\xe1?'
tRp981
sg15
g11
(g13
S'\x0b\x11\x16M\xa1E\xe2?'
tRp982
ssg6
g564
sa(dp983
g3
(dp984
S'k'
I85
sg5
I1000
sg6
g564
ssg8
(dp985
g10
g11
(g13
S'\xaf\xc3\xc8\xba\xe2=\xe1?'
tRp986
sg15
g11
(g13
S'\x18\xc0\x8eA\x06@\xe2?'
tRp987
ssg6
g564
sa(dp988
g3
(dp989
S'k'
I86
sg5
I1000
sg6
g564
ssg8
(dp990
g10
g11
(g13
S"2\x85\x19'\xd8;\xe1?"
tRp991
sg15
g11
(g13
S'\xad\r\xed\xed\xeaH\xe2?'
tRp992
ssg6
g564
sa(dp993
g3
(dp994
S'k'
I87
sg5
I1000
sg6
g564
ssg8
(dp995
g10
g11
(g13
S'E8O\x80&=\xe1?'
tRp996
sg15
g11
(g13
S'L\xc5\xa4\xe7\xc5H\xe2?'
tRp997
ssg6
g564
sa(dp998
g3
(dp999
S'k'
I88
sg5
I1000
sg6
g564
ssg8
(dp1000
g10
g11
(g13
S'o\x0e\xb2\xb4\xe1E\xe1?'
tRp1001
sg15
g11
(g13
S'P\r\xc3\xe6\xb6<\xe2?'
tRp1002
ssg6
g564
sa(dp1003
g3
(dp1004
S'k'
I89
sg5
I1000
sg6
g564
ssg8
(dp1005
g10
g11
(g13
S'\xd8i+:L8\xe1?'
tRp1006
sg15
g11
(g13
S'\xeck\xa5\xe9T8\xe2?'
tRp1007
ssg6
g564
sa(dp1008
g3
(dp1009
S'k'
I90
sg5
I1000
sg6
g564
ssg8
(dp1010
g10
g11
(g13
S'\x06\x91F\x00\xa2:\xe1?'
tRp1011
sg15
g11
(g13
S'\xd1\x95\xee\xbe\xf9+\xe2?'
tRp1012
ssg6
g564
sa(dp1013
g3
(dp1014
S'k'
I91
sg5
I1000
sg6
g564
ssg8
(dp1015
g10
g11
(g13
S'R\x19\xd57<<\xe1?'
tRp1016
sg15
g11
(g13
S'\xb5\xff\x15\xf9\xab6\xe2?'
tRp1017
ssg6
g564
sa(dp1018
g3
(dp1019
S'k'
I92
sg5
I1000
sg6
g564
ssg8
(dp1020
g10
g11
(g13
S'\xdfV\x8c\xf3\x96:\xe1?'
tRp1021
sg15
g11
(g13
S'[\x1ar\x9d66\xe2?'
tRp1022
ssg6
g564
sa(dp1023
g3
(dp1024
S'k'
I93
sg5
I1000
sg6
g564
ssg8
(dp1025
g10
g11
(g13
S'4\xd2s\xd9\x929\xe1?'
tRp1026
sg15
g11
(g13
S'/\x94\rrB2\xe2?'
tRp1027
ssg6
g564
sa(dp1028
g3
(dp1029
S'k'
I94
sg5
I1000
sg6
g564
ssg8
(dp1030
g10
g11
(g13
S'<rj\xb8\xa78\xe1?'
tRp1031
sg15
g11
(g13
S'\xbfY%\xd8\xd14\xe2?'
tRp1032
ssg6
g564
sa(dp1033
g3
(dp1034
S'k'
I95
sg5
I1000
sg6
g564
ssg8
(dp1035
g10
g11
(g13
S'\xe0U\xad\x13\x11:\xe1?'
tRp1036
sg15
g11
(g13
S'By\xf6\xe4l/\xe2?'
tRp1037
ssg6
g564
sa(dp1038
g3
(dp1039
S'k'
I96
sg5
I1000
sg6
g564
ssg8
(dp1040
g10
g11
(g13
S'\x13\x8b\x19D\xd99\xe1?'
tRp1041
sg15
g11
(g13
S'\x1b\xbc&1\x80+\xe2?'
tRp1042
ssg6
g564
sa(dp1043
g3
(dp1044
S'k'
I97
sg5
I1000
sg6
g564
ssg8
(dp1045
g10
g11
(g13
S'4N\x1b\xffm<\xe1?'
tRp1046
sg15
g11
(g13
S'.\x08\xb8\xb2\xb70\xe2?'
tRp1047
ssg6
g564
sa(dp1048
g3
(dp1049
S'k'
I98
sg5
I1000
sg6
g564
ssg8
(dp1050
g10
g11
(g13
S'\x0b\xe8z_\xb66\xe1?'
tRp1051
sg15
g11
(g13
S'L,\xe1=u,\xe2?'
tRp1052
ssg6
g564
sa(dp1053
g3
(dp1054
S'k'
I99
sg5
I1000
sg6
g564
ssg8
(dp1055
g10
g11
(g13
S'K\x80\xfe\x8eV>\xe1?'
tRp1056
sg15
g11
(g13
S'\xc2\x0cyd\x19$\xe2?'
tRp1057
ssg6
g564
sa(dp1058
g3
(dp1059
S'k'
I100
sg5
I1000
sg6
g564
ssg8
(dp1060
g10
g11
(g13
S'\xf6\x8a\xfd\xae\xb24\xe1?'
tRp1061
sg15
g11
(g13
S'\xac*?z\xe0\x1f\xe2?'
tRp1062
ssg6
g564
sa(dp1063
g3
(dp1064
S'k'
I100
sg5
I1000
sg6
g564
ssg8
(dp1065
g10
g11
(g13
S'\x8eE\x0cS\xc79\xe1?'
tRp1066
sg15
g11
(g13
S'\x8aIJW)1\xe2?'
tRp1067
ssg6
g564
sa(dp1068
g3
(dp1069
S'k'
I200
sg5
I1000
sg6
g564
ssg8
(dp1070
g10
g11
(g13
S'\xc9\xdd\xb9\x80\xcc6\xe1?'
tRp1071
sg15
g11
(g13
S'\xb1?V\n\x82\xcd\xe1?'
tRp1072
ssg6
g564
sa(dp1073
g3
(dp1074
S'k'
I300
sg5
I1000
sg6
g564
ssg8
(dp1075
g10
g11
(g13
S'\xa4\x81\xd6Vj7\xe1?'
tRp1076
sg15
g11
(g13
S'X\xc5\xf3Kq\xae\xe1?'
tRp1077
ssg6
g564
sa(dp1078
g3
(dp1079
S'k'
I400
sg5
I1000
sg6
g564
ssg8
(dp1080
g10
g11
(g13
S'\x0e#6\xcba7\xe1?'
tRp1081
sg15
g11
(g13
S'C\xe62\xba\xd7\x96\xe1?'
tRp1082
ssg6
g564
sa(dp1083
g3
(dp1084
S'k'
I500
sg5
I1000
sg6
g564
ssg8
(dp1085
g10
g11
(g13
S'\xf8\x14\x02^J6\xe1?'
tRp1086
sg15
g11
(g13
S'\x02\x1d\xebP[\x8e\xe1?'
tRp1087
ssg6
g564
sa.