(lp1
(dp2
S'k'
I1
sS'numberOfExperiments'
p3
I20
sS'dataset'
p4
S'tiny_weirdly_numbered'
p5
sa(dp6
S'k'
I2
sg3
I20
sg4
g5
sa(dp7
S'k'
I3
sg3
I20
sg4
g5
sa(dp8
S'k'
I4
sg3
I20
sg4
g5
sa(dp9
S'k'
I5
sg3
I20
sg4
g5
sa(dp10
S'k'
I6
sg3
I20
sg4
g5
sa(dp11
S'k'
I7
sg3
I20
sg4
g5
sa(dp12
S'k'
I8
sg3
I20
sg4
g5
sa(dp13
S'k'
I9
sg3
I20
sg4
g5
sa(dp14
S'k'
I10
sg3
I20
sg4
g5
sa(dp15
S'k'
I11
sg3
I20
sg4
g5
sa(dp16
S'k'
I12
sg3
I20
sg4
g5
sa(dp17
S'k'
I13
sg3
I20
sg4
g5
sa(dp18
S'k'
I14
sg3
I20
sg4
g5
sa.